__ZN3JSC19initializeThreadingEv
__ZN3JSCL23initializeThreadingOnceEv
__ZN3WTF17double_conversion10initializeEv
__ZN3WTF19initializeThreadingEv
__ZN3WTF10StringImpl5emptyEv
__ZN3WTF10fastMallocEm
__ZN3WTF20TCMalloc_ThreadCache10InitModuleEv
__ZN3WTFL15InitSizeClassesEv
__ZN3WTF17PageHeapAllocatorINS_4SpanEE3NewEv
__Z20TCMalloc_SystemAllocmPmm
__ZN3WTF17TCMalloc_PageHeap4initEv
__ZN3WTF20TCMalloc_ThreadCache22CreateCacheIfNecessaryEv
__ZN3WTF20TCMalloc_ThreadCache7NewHeapEP17_opaque_pthread_tm
__ZN3WTF17PageHeapAllocatorINS_20TCMalloc_ThreadCacheEE3NewEv
__ZN3WTF20TCMalloc_ThreadCache14PickNextSampleEm
__ZN3WTF25TCMalloc_Central_FreeList14FetchFromSpansEv
__ZN3WTF17TCMalloc_PageHeap3NewEm
__ZN3WTF17TCMalloc_PageHeap10AllocLargeEm
__ZN3WTF17TCMalloc_PageHeap8GrowHeapEm
__ZN3WTFL13MetaDataAllocEm
__ZN3WTF17TCMalloc_PageHeap6DeleteEPNS_4SpanE
__ZN3WTF17TCMalloc_PageHeap5CarveEPNS_4SpanEmb
__ZNK3WTF10StringImpl12hashSlowCaseEv
__ZN3WTF20ThreadIdentifierData14initializeOnceEv
__ZN3WTF16fastZeroedMallocEm
__ZN3WTF13WTFThreadDataC1Ev
__ZN3WTF11StackBounds10initializeEv
__ZN3WTF17AtomicStringTable6createERNS_13WTFThreadDataE
__ZN3WTF15initializeDatesEv
__ZN3WTF20equivalentYearForDSTEi
__ZN3WTF11currentTimeEv
__ZN3JSC12GlobalJSLock10initializeEv
__ZN3WTF5MutexC1Ev
__ZN3JSC7Options10initializeEv
__ZN3WTF22numberOfProcessorCoresEv
__ZN3JSC19ExecutableAllocator19initializeAllocatorEv
__ZN3JSC30FixedVMPoolExecutableAllocatorC2Ev
__ZN3WTF8pageSizeEv
__ZN3WTF13MetaAllocatorC2Emm
__ZN3WTF11OSAllocator18reserveUncommittedEmNS0_5UsageEbbb
__ZN3WTF11OSAllocator16reserveAndCommitEmNS0_5UsageEbbb
__ZN3WTF13MetaAllocator17addFreshFreeSpaceEPvm
__ZN3WTF13MetaAllocator12addFreeSpaceEPvm
__ZN3WTF7HashMapIPvPNS_13MetaAllocator13FreeSpaceNodeENS_7PtrHashIS1_EENS_10HashTraitsIS1_EENS7_IS4_EEE4findERKS1_
__ZN3WTF12RedBlackTreeINS_13MetaAllocator13FreeSpaceNodeEmE6insertEPS2_
__ZN3WTF9HashTableIPvNS_12KeyValuePairIS1_PNS_13MetaAllocator13FreeSpaceNodeEEENS_24KeyValuePairKeyExtractorIS6_EENS_7PtrHashIS1_EENS_18HashMapValueTraitsINS_10HashTraitsIS1_EENSC_IS5_EEEESD_E16lookupForWritingINS_22IdentityHashTranslatorISA_EES1_EENSt3__14pairIPS6_bEERKT0_
__ZN3WTF9HashTableIPvNS_12KeyValuePairIS1_PNS_13MetaAllocator13FreeSpaceNodeEEENS_24KeyValuePairKeyExtractorIS6_EENS_7PtrHashIS1_EENS_18HashMapValueTraitsINS_10HashTraitsIS1_EENSC_IS5_EEEESD_E3addINS_17HashMapTranslatorISF_SA_EES1_S5_EENS_18HashTableAddResultINS_17HashTableIteratorIS1_S6_S8_SA_SF_SD_EEEERKT0_RKT1_
__ZN3WTF8fastFreeEPv
__ZN3JSC13CodeProfiling15notifyAllocatorEPN3WTF13MetaAllocatorE
__ZN3JSC7JSStack19initializeThreadingEv
__ZN3JSC5LLInt10initializeEv
__ZN3WTF39initializeMainThreadToProcessMainThreadEv
__ZN3WTFL43initializeMainThreadToProcessMainThreadOnceEv
__ZN3WTF47initializeMainThreadToProcessMainThreadPlatformEv
__ZN3WTF19initializeGCThreadsEv
__ZN3WTF18FunctionDispatcherC2Ev
__ZN3WTF20initializeMainThreadEv
__ZN3WTF10StringImpl6createEPKhj
__ZN3WTF13tryFastMallocEm
__ZN3WTF10StringImpl7destroyEPS0_
__ZN3WTF10StringImplD2Ev
__ZN3WTF20TCMalloc_ThreadCache10DeallocateENS_11HardenedSLLEm
__ZN3WTF6String6numberEy
__ZN3WTF5Mutex4lockEv
__ZN3WTF5Mutex6unlockEv
__ZN3WTF18fastMallocGoodSizeEm
__ZNKR3WTF6String12isolatedCopyEv
__ZNK3WTF10StringImpl12isolatedCopyEv
__ZN3WTF15ThreadConditionC1Ev
__ZN3WTF6StringC1EPKc
__ZN3WTF10StringImpl6createEPKh
__ZN3WTF12isMainThreadEv
__ZN3WTF7CStringC1EPKcm
__ZNK3WTF10StringImpl8endsWithEt
__ZN3WTF7CString11mutableDataEv
__ZN3WTF7CString18copyBufferIfNeededEv
__ZN3WTF10StringImpl11reverseFindEtj
__ZNK3WTF6String9substringEjj
__ZN3WTF10StringImpl9substringEjj
__ZN3WTF12createThreadEPFvPvES0_PKc
__ZN3WTF20createThreadInternalEPFvPvES0_PKc
__ZN3WTFL35establishIdentifierForPthreadHandleERKP17_opaque_pthread_t
__ZN3WTF9HashTableIjNS_12KeyValuePairIjNS_6OwnPtrINS_12PthreadStateEEEEENS_24KeyValuePairKeyExtractorIS5_EENS_7IntHashIjEENS_18HashMapValueTraitsINS_10HashTraitsIjEENSB_IS4_EEEESC_E3addINS_17HashMapTranslatorISE_S9_EEjNS_10PassOwnPtrIS3_EEEENS_18HashTableAddResultINS_17HashTableIteratorIjS5_S7_S9_SE_SC_EEEERKT0_RKT1_
__ZN3WTF9HashTableIjNS_12KeyValuePairIjNS_6OwnPtrINS_12PthreadStateEEEEENS_24KeyValuePairKeyExtractorIS5_EENS_7IntHashIjEENS_18HashMapValueTraitsINS_10HashTraitsIjEENSB_IS4_EEEESC_E6rehashEi
__ZN3WTF9HashTableIjNS_12KeyValuePairIjNS_6OwnPtrINS_12PthreadStateEEEEENS_24KeyValuePairKeyExtractorIS5_EENS_7IntHashIjEENS_18HashMapValueTraitsINS_10HashTraitsIjEENSB_IS4_EEEESC_E8reinsertERS5_
__ZN3WTFL19wtfThreadEntryPointEPv
__ZN3WTFL16threadEntryPointEPv
__ZN3WTF31initializeCurrentThreadInternalEPKc
__ZN3WTF20ThreadIdentifierData10initializeEj
__ZN3WTF5MutexD1Ev
__ZN3WTF6String29charactersWithNullTerminationEv
__ZN3WTF10StringImpl34createWithTerminatingNullCharacterERKS0_
__ZNK3WTF10StringImpl17getData16SlowCaseEv
__ZN3WTF15AutodrainedPoolC1Ev
__ZN3WTF15AutodrainedPoolD1Ev
__ZN3WTF6StringC1ENS_12ASCIILiteralE
__ZN3WTF10StringImpl17createFromLiteralEPKc
__ZN3WTF12equalNonNullEPKNS_10StringImplES2_
__ZN3WTFL22stringImplContentEqualEPKNS_10StringImplES2_
__ZN3WTF13currentThreadEv
__ZN3WTF20ThreadIdentifierData10identifierEv
__ZNK3WTF6String15stripWhiteSpaceEv
__ZN3WTF10StringImpl15stripWhiteSpaceEv
__ZN3WTF10StringImpl22stripMatchedCharactersINS_23SpaceOrNewlinePredicateEEENS_10PassRefPtrIS0_EET_
__ZN3WTF6StringC1EPKtj
__ZN3WTF10StringImpl6createEPKtj
__ZNK3WTF6String4utf8ENS0_14ConversionModeE
__ZN3WTF7Unicode19convertLatin1ToUTF8EPPKhS2_PPcS4_
__ZNK3WTF10StringImpl8endsWithEPKcjb
__ZN3WTF5equalEPKNS_10StringImplES2_
__ZN3WTF16callOnMainThreadEPFvPvES0_
__ZN3WTF5DequeINS_19FunctionWithContextELm0EE14expandCapacityEv
__ZN3WTF37scheduleDispatchFunctionsOnMainThreadEv
__ZN3WTF15ThreadCondition4waitERNS_5MutexE
__ZNK3WTF6String6toUIntEPb
__ZN3WTF10StringImpl6toUIntEPb
__ZN3WTF16charactersToUIntEPKhmPb
__ZN3WTFL14toIntegralTypeIjhEET_PKT0_mPbi
__ZN3WTF7CStringC1EPKc
__ZN3WTF6String8fromUTF8EPKh
__ZN3WTF6String8fromUTF8EPKhm
__ZN3WTF15ThreadCondition6signalEv
__ZN3WTF12AtomicString3addEPKh
__ZN3WTF9HashTableIPNS_10StringImplES2_NS_17IdentityExtractorENS_10StringHashENS_10HashTraitsIS2_EES6_E6rehashEi
__ZN3WTF12AtomicString3addEPKtj
__ZN3WTFL16addToStringTableINS_24HashTranslatorCharBufferItEENS_21UCharBufferTranslatorEEENS_10PassRefPtrINS_10StringImplEEERKT_
__ZN3WTF21UCharBufferTranslator4hashERKNS_24HashTranslatorCharBufferItEE
__ZN3WTF5equalEPKNS_10StringImplEPKtj
__ZN3WTF10StringImpl20create8BitIfPossibleEPKtj
__ZN3WTF9HashTableIPNS_10StringImplES2_NS_17IdentityExtractorENS_10StringHashENS_10HashTraitsIS2_EES6_E4findERKS2_
__ZN3WTF12AtomicString4initEv
__ZN3WTF12AtomicString18addFromLiteralDataEPKcj
__ZN3WTF35CharBufferFromLiteralDataTranslator4hashERKNS_24HashTranslatorCharBufferIcEE
__ZN3WTF10StringImpl17createFromLiteralEPKcj
__ZN3WTF5equalEPKNS_10StringImplEPKhj
__ZN3WTF5equalEPKNS_10StringImplEPKh
__ZN3WTF36lockAtomicallyInitializedStaticMutexEv
__ZN3WTF38unlockAtomicallyInitializedStaticMutexEv
__ZN3WTF12AtomicString11addSlowCaseEPNS_10StringImplE
__ZN3WTF9HashTableIPNS_10StringImplES2_NS_17IdentityExtractorENS_10StringHashENS_10HashTraitsIS2_EES6_E3addINS_22IdentityHashTranslatorIS4_EES2_S2_EENS_18HashTableAddResultINS_17HashTableIteratorIS2_S2_S3_S4_S6_S6_EEEERKT0_RKT1_
__ZN3WTF11emptyStringEv
__ZN3WTF27monotonicallyIncreasingTimeEv
__ZN3WTF29cryptographicallyRandomValuesEPvm
__ZN3WTF12_GLOBAL__N_125ARC4RandomNumberGenerator12stirIfNeededEv
__ZN3WTF35cryptographicallyRandomValuesFromOSEPhm
__ZNK3WTF6String5lowerEv
__ZNK3WTF12AtomicString5lowerEv
__ZN3WTF10StringImpl5lowerEv
__ZN3WTF17equalIgnoringCaseEPKNS_10StringImplEPKh
__ZN3WTF6StringC1EPKhj
__ZN3WTF6StringC1EPKcj
__ZN3WTF12AtomicString3addEPKhj
__ZN3WTF21LCharBufferTranslator4hashERKNS_24HashTranslatorCharBufferIhEE
__ZN3WTF18charactersToDoubleEPKhmPb
__ZN3WTF17double_conversion23StringToDoubleConverter14StringToDoubleEPKcmPm
__ZN3WTF17double_conversion6StrtodENS0_15BufferReferenceIKcEEi
__ZN3WTF11fastReallocEPvm
__ZN3WTF12SchedulePairC1EP9NSRunLoopPK10__CFString
__ZN3WTF12SchedulePairC2EP9NSRunLoopPK10__CFString
__ZN3WTF12AtomicString6removeEPNS_10StringImplE
__ZN3WTF7HashSetIPNS_10StringImplENS_10StringHashENS_10HashTraitsIS2_EEE6removeERKS2_
__ZN3WTF7CString16newUninitializedEmRPc
__ZN3WTF24equalIgnoringCaseNonNullEPKNS_10StringImplES2_
__ZN3WTF10StringImpl5adoptERNS_12StringBufferItEE
__ZN3WTF6String6appendERKS0_
__ZN3WTF18charactersToDoubleEPKtmPb
__ZN3WTF17equalIgnoringCaseEPKNS_10StringImplES2_
__ZNK3WTF10StringImpl10startsWithEPKS0_
__ZN3JSC2VM12createLeakedENS_8HeapTypeE
__ZN3JSC2VMC2ENS0_6VMTypeENS_8HeapTypeE
__ZN3JSC6JSLockC1EPNS_2VME
__ZN3JSC19ExecutableAllocatorC1ERNS_2VME
__ZN3JSC4HeapC1EPNS_2VMENS_8HeapTypeE
__ZN3JSC4HeapC2EPNS_2VMENS_8HeapTypeE
__ZN3WTF7ramSizeEv
__ZN3JSC11SuperRegionC1Ev
__ZN3JSC11MarkedSpaceC1EPNS_4HeapE
__ZN3JSC11MarkedSpaceC2EPNS_4HeapE
__ZN3JSC11CopiedSpaceC1EPNS_4HeapE
__ZN3JSC14MachineThreadsC1EPNS_4HeapE
__ZN3JSC18GCThreadSharedDataC1EPNS_2VME
__ZN3JSC18GCThreadSharedDataC2EPNS_2VME
__ZN3WTF15ThreadCondition9timedWaitERNS_5MutexEd
__ZN3WTF21PageAllocationAligned8allocateEmmNS_11OSAllocator5UsageEb
__ZN3JSC11SlotVisitorC1ERNS_18GCThreadSharedDataE
__ZN3JSC11CopyVisitorC1ERNS_18GCThreadSharedDataE
__ZN3JSC8GCThreadC1ERNS_18GCThreadSharedDataEPNS_11SlotVisitorEPNS_11CopyVisitorE
__ZN3JSC8GCThread18initializeThreadIDEj
__ZN3WTF6VectorIPN3JSC8GCThreadELm0ENS_15CrashOnOverflowEE14expandCapacityEm
__ZN3JSC8GCThread17gcThreadStartFuncEPv
__ZN3JSC8GCThread12gcThreadMainEv
__ZN3WTF16registerGCThreadEv
__ZN3JSC8GCThread16waitForNextPhaseEv
__ZN3JSC9HandleSetC1EPNS_2VME
__ZN3JSC11HandleStackC1Ev
__ZN3WTF10BlockStackIN3JSC7JSValueEE4growEv
__ZN3WTF6VectorIPN3JSC7JSValueELm0ENS_15CrashOnOverflowEE14expandCapacityEm
__ZN3JSC13DFGCodeBlocksC1Ev
__ZN3JSC17JITStubRoutineSetC1Ev
__ZN3JSC25DefaultGCActivityCallbackC1EPNS_4HeapE
__ZN3JSC9HeapTimerC2EPNS_2VMEP11__CFRunLoop
__ZN3JSCL13retainAPILockEPKv
__ZN3JSC18IncrementalSweeper6createEPNS_4HeapE
__ZN3JSC11CopiedSpace4initEv
__ZN3JSC11CopiedSpace13allocateBlockEv
__ZN3WTF9HashTableIPN3JSC11CopiedBlockES3_NS_17IdentityExtractorENS_7PtrHashIS3_EENS_10HashTraitsIS3_EES8_E3addINS_22IdentityHashTranslatorIS6_EES3_S3_EENS_18HashTableAddResultINS_17HashTableIteratorIS3_S3_S4_S6_S8_S8_EEEERKT0_RKT1_
__ZN3JSC8WatchdogC1Ev
__ZN3JSC8Watchdog9initTimerEv
__ZN3WTF13wtfThreadDataEv
__ZN3JSC17CommonIdentifiersC1EPNS_2VME
__ZN3JSC17CommonIdentifiersC2EPNS_2VME
__ZN3JSC10Identifier3addEPNS_2VMEPKc
__ZN3WTF9HashTableIPNS_10StringImplES2_NS_17IdentityExtractorENS_10StringHashENS_10HashTraitsIS2_EES6_E6expandEv
__ZN3JSC12SmallStringsC1Ev
__ZN3JSC11ParserArenaC1Ev
__ZN3JSC8KeywordsC1EPNS_2VME
__ZN3JSC11RegExpCacheC1EPNS_2VME
__ZNK3JSC19ExecutableAllocator7isValidEv
__ZN3JSC9CodeCacheC1ENS0_13CodeCacheKindE
__ZN3JSC11InterpreterC1ERNS_2VME
__ZN3JSC7JSStackC1ERNS_2VMEm
__ZN3JSC12JSLockHolderC1EPNS_2VME
__ZN3JSC6JSLock4lockEv
__ZN3JSC15MarkedAllocator16allocateSlowCaseEm
__ZN3JSC4Heap11didAllocateEm
__ZN3JSC25DefaultGCActivityCallback11didAllocateEm
__ZN3JSC15MarkedAllocator13allocateBlockEm
__ZN3JSC11MarkedBlock6createEPNS_9DeadBlockEPNS_15MarkedAllocatorEmNS0_14DestructorTypeE
__ZN3JSC11MarkedBlock5sweepENS0_9SweepModeE
__ZN3JSC7WeakSet5sweepEv
__ZN3JSC11MarkedBlock11sweepHelperILNS0_14DestructorTypeE1EEENS0_8FreeListENS0_9SweepModeE
__ZN3WTF9HashTableIPN3JSC11MarkedBlockES3_NS_17IdentityExtractorENS_15MarkedBlockHashENS_10HashTraitsIS3_EES7_E3addINS_22IdentityHashTranslatorIS5_EES3_S3_EENS_18HashTableAddResultINS_17HashTableIteratorIS3_S3_S4_S5_S7_S7_EEEERKT0_RKT1_
__ZN3WTF9HashTableIPN3JSC11MarkedBlockES3_NS_17IdentityExtractorENS_15MarkedBlockHashENS_10HashTraitsIS3_EES7_E6rehashEi
__ZN3JSC9StructureC1ERNS_2VME
__ZN3JSC9HandleSet12writeBarrierEPNS_7JSValueERKS1_
__ZN3JSC17StructureRareData15createStructureERNS_2VMEPNS_14JSGlobalObjectENS_7JSValueE
__ZN3JSC9StructureC1ERNS_2VMEPNS_14JSGlobalObjectENS_7JSValueERKNS_8TypeInfoEPKNS_9ClassInfoEhj
__ZN3JSC19SparseArrayValueMap15createStructureERNS_2VMEPNS_14JSGlobalObjectENS_7JSValueE
__ZN3JSC12SmallStrings23initializeCommonStringsERNS_2VME
__ZN3JSC8JSString6createERNS_2VMEN3WTF10PassRefPtrINS3_10StringImplEEE
__ZN3JSC9JITThunksC1Ev
__ZN3JSC36performPlatformSpecificJITAssertionsEPNS_2VME
__ZN3JSC11Interpreter10initializeEb
__ZN3WTF9HashTableIPvNS_12KeyValuePairIS1_N3JSC8OpcodeIDEEENS_24KeyValuePairKeyExtractorIS5_EENS_7PtrHashIS1_EENS_18HashMapValueTraitsINS_10HashTraitsIS1_EENSB_IS4_EEEESC_E16lookupForWritingINS_22IdentityHashTranslatorIS9_EES1_EENSt3__14pairIPS5_bEERKT0_
__ZN3WTF9HashTableIPvNS_12KeyValuePairIS1_N3JSC8OpcodeIDEEENS_24KeyValuePairKeyExtractorIS5_EENS_7PtrHashIS1_EENS_18HashMapValueTraitsINS_10HashTraitsIS1_EENSB_IS4_EEEESC_E3addINS_17HashMapTranslatorISE_S9_EES1_S4_EENS_18HashTableAddResultINS_17HashTableIteratorIS1_S5_S7_S9_SE_SC_EEEERKT0_RKT1_
__ZN3WTF9HashTableIPvNS_12KeyValuePairIS1_N3JSC8OpcodeIDEEENS_24KeyValuePairKeyExtractorIS5_EENS_7PtrHashIS1_EENS_18HashMapValueTraitsINS_10HashTraitsIS1_EENSB_IS4_EEEESC_E6rehashEi
_getHostCallReturnValueWithExecState
__ZN3JSC5LLInt4Data17performAssertionsERNS_2VME
__ZN3JSC3DFG14LongLivedStateC1Ev
__ZN3JSC12JSLockHolderD1Ev
__ZN3JSC12JSLockHolderD2Ev
__ZN3JSC11MarkedBlock11sweepHelperILNS0_14DestructorTypeE2EEENS0_8FreeListENS0_9SweepModeE
__ZN3JSC11MarkedBlock11sweepHelperILNS0_14DestructorTypeE0EEENS0_8FreeListENS0_9SweepModeE
__ZN3JSC14JSGlobalObjectC2ERNS_2VMEPNS_9StructureEPKNS_23GlobalObjectMethodTableE
__ZN3JSC13WatchpointSetC1ENS_24InitialWatchpointSetModeE
__ZN3WTF12randomNumberEv
__ZN3WTF29cryptographicallyRandomNumberEv
__ZN3JSC14JSGlobalObject4initEPNS_8JSObjectE
__ZN3JSC14JSGlobalObject5resetENS_7JSValueE
__ZN3JSC17FunctionPrototypeC1EPNS_14JSGlobalObjectEPNS_9StructureE
__ZN3JSC16InternalFunctionC2EPNS_14JSGlobalObjectEPNS_9StructureE
__ZN3JSC17FunctionPrototype14finishCreationEPNS_9ExecStateERKN3WTF6StringE
__ZN3JSC16InternalFunction14finishCreationERNS_2VMERKN3WTF6StringE
__ZN3JSC21getCallableObjectSlowEPNS_6JSCellE
__ZN3JSC8JSObject17putDirectInternalILNS0_7PutModeE1EEEbRNS_2VMENS_12PropertyNameENS_7JSValueEjRNS_15PutPropertySlotEPNS_6JSCellE
__ZN3JSC9Structure40addPropertyTransitionToExistingStructureEPS0_NS_12PropertyNameEjPNS_6JSCellERi
__ZNK3JSC24StructureTransitionTable3getEPN3WTF10StringImplEj
__ZN3JSC9Structure3getERNS_2VMENS_12PropertyNameERjRPNS_6JSCellE
__ZN3JSC9Structure21addPropertyTransitionERNS_2VMEPS0_NS_12PropertyNameEjPNS_6JSCellERi
__ZN3JSC9StructureC2ERNS_2VMEPKS0_
__ZN3JSC9Structure43materializePropertyMapIfNecessaryForPinningERNS_2VME
__ZN3JSC9Structure22materializePropertyMapERNS_2VME
__ZN3JSC9Structure17createPropertyMapERNS_2VMEj
__ZN3JSC13PropertyTable6createERNS_2VMEj
__ZN3JSC9Structure16putSpecificValueERNS_2VMENS_12PropertyNameEjPNS_6JSCellE
__ZN3JSC13PropertyTable3addERKNS_16PropertyMapEntryERiNS0_22EffectOnPropertyOffsetE
__ZN3JSC24StructureTransitionTable3addERNS_2VMEPNS_9StructureE
__ZN3JSC7WeakSet13findAllocatorEv
__ZN3JSC9WeakBlock6createEPNS_9DeadBlockE
__ZN3JSC8JSObject43setStructureAndReallocateStorageIfNecessaryERNS_2VMEPNS_9StructureE
__ZN3JSC8JSObject20growOutOfLineStorageERNS_2VMEmm
__ZN3JSC9Butterfly19growPropertyStorageERNS_2VMEPNS_9StructureEmm
__ZN3JSC8JSObject26putDirectWithoutTransitionERNS_2VMENS_12PropertyNameENS_7JSValueEj
__ZN3JSC9Structure27putWillGrowOutOfLineStorageEv
__ZN3JSC9Structure28addPropertyWithoutTransitionERNS_2VMENS_12PropertyNameEjPNS_6JSCellE
__ZN3JSC17FunctionPrototype21addFunctionPropertiesEPNS_9ExecStateEPNS_14JSGlobalObjectEPPNS_10JSFunctionES7_
__ZN3JSC10JSFunction6createEPNS_9ExecStateEPNS_14JSGlobalObjectEiRKN3WTF6StringEPFxS2_ENS_9IntrinsicESA_
__ZN3JSC2VM15getHostFunctionEPFxPNS_9ExecStateEES4_
__ZN3JSC9JITThunks16hostFunctionStubEPNS_2VMEPFxPNS_9ExecStateEES6_
__ZN3JSC3JITC1EPNS_2VMEPNS_9CodeBlockE
__ZN3JSC3JITC2EPNS_2VMEPNS_9CodeBlockE
__ZN3JSC3JIT27privateCompileCTINativeCallEPNS_2VMEPFxPNS_9ExecStateEE
__ZN3JSC9JITThunks7ctiStubEPNS_2VMEPFNS_21MacroAssemblerCodeRefES2_E
__ZN3WTF9HashTableIPFN3JSC21MacroAssemblerCodeRefEPNS1_2VMEENS_12KeyValuePairIS6_S2_EENS_24KeyValuePairKeyExtractorIS8_EENS_7PtrHashIS6_EENS_18HashMapValueTraitsINS_10HashTraitsIS6_EENSE_IS2_EEEESF_E16lookupForWritingINS_22IdentityHashTranslatorISC_EES6_EENSt3__14pairIPS8_bEERKT0_
__ZN3WTF9HashTableIPFN3JSC21MacroAssemblerCodeRefEPNS1_2VMEENS_12KeyValuePairIS6_S2_EENS_24KeyValuePairKeyExtractorIS8_EENS_7PtrHashIS6_EENS_18HashMapValueTraitsINS_10HashTraitsIS6_EENSE_IS2_EEEESF_E3addINS_17HashMapTranslatorISH_SC_EES6_S2_EENS_18HashTableAddResultINS_17HashTableIteratorIS6_S8_SA_SC_SH_SF_EEEERKT0_RKT1_
__ZN3WTF9HashTableIPFN3JSC21MacroAssemblerCodeRefEPNS1_2VMEENS_12KeyValuePairIS6_S2_EENS_24KeyValuePairKeyExtractorIS8_EENS_7PtrHashIS6_EENS_18HashMapValueTraitsINS_10HashTraitsIS6_EENSE_IS2_EEEESF_E6rehashEi
__ZN3JSC19nativeCallGeneratorEPNS_2VME
__ZN3JSCL18nativeForGeneratorEPNS_2VMENS_22CodeSpecializationKindE
__ZN3JSC20MacroAssemblerX86_647store64ENS_22AbstractMacroAssemblerINS_12X86AssemblerEE12TrustedImm64ENS3_15ImplicitAddressE
__ZN3JSC12X86Assembler23X86InstructionFormatter11oneByteOp64ENS0_15OneByteOpcodeIDEiNS_12X86Registers10RegisterIDEi
__ZN3JSC12X86Assembler23X86InstructionFormatter11memoryModRMEiNS_12X86Registers10RegisterIDEi
__ZN3JSC14MacroAssembler8storePtrENS_12X86Registers10RegisterIDEPv
__ZN3JSC12X86Assembler23X86InstructionFormatter9oneByteOpENS0_15OneByteOpcodeIDEiNS_12X86Registers10RegisterIDEi
__ZN3JSC20MacroAssemblerX86_6412branchTest64ENS_23MacroAssemblerX86Common15ResultConditionENS_12X86Registers10RegisterIDENS_22AbstractMacroAssemblerINS_12X86AssemblerEE12TrustedImm32E
__ZN3JSC12X86Assembler23X86InstructionFormatter11oneByteOp64ENS0_15OneByteOpcodeIDEiNS_12X86Registers10RegisterIDE
__ZN3JSC12X86Assembler3jCCENS0_9ConditionE
__ZN3WTF6VectorIcLm128ENS_20UnsafeVectorOverflowEE15reserveCapacityEm
__ZN3JSC10LinkBuffer8linkCodeEPvNS_20JITCompilationEffortE
__ZN3JSC19ExecutableAllocator8allocateERNS_2VMEmPvNS_20JITCompilationEffortE
__ZN3WTF13MetaAllocator8allocateEmPv
__ZN3WTF13MetaAllocator22findAndRemoveFreeSpaceEm
__ZN3WTF12RedBlackTreeINS_13MetaAllocator13FreeSpaceNodeEmE6removeEPS2_
__ZN3WTF12RedBlackTreeINS_13MetaAllocator13FreeSpaceNodeEmE11removeFixupEPS2_S4_
__ZN3WTF7HashMapIPvPNS_13MetaAllocator13FreeSpaceNodeENS_7PtrHashIS1_EENS_10HashTraitsIS1_EENS7_IS4_EEE6removeENS_24HashTableIteratorAdapterINS_9HashTableIS1_NS_12KeyValuePairIS1_S4_EENS_24KeyValuePairKeyExtractorISE_EES6_NS_18HashMapValueTraitsIS8_S9_EES8_EESE_EE
__ZN3WTF13MetaAllocator22incrementPageOccupancyEPvm
__ZN3WTF7HashMapImmNS_7IntHashImEENS_10HashTraitsImEES4_E4findERKm
__ZN3JSC30FixedVMPoolExecutableAllocator14notifyNeedPageEPv
__ZN3WTF11OSAllocator6commitEPvmbb
__ZN3JSC10LinkBuffer30finalizeCodeWithoutDisassemblyEv
__ZN3JSC3JITD2Ev
__ZN3JSC24nativeConstructGeneratorEPNS_2VME
__ZN3JSC16NativeExecutable6createERNS_2VMENS_21MacroAssemblerCodeRefEPFxPNS_9ExecStateEES3_S7_NS_9IntrinsicE
__ZN3JSC16NativeExecutable14finishCreationERNS_2VMENS_7JITCodeES3_NS_9IntrinsicE
__ZN3WTF9HashTableINSt3__14pairIPFxPN3JSC9ExecStateEES7_EENS_12KeyValuePairIS8_NS3_4WeakINS3_16NativeExecutableEEEEENS_24KeyValuePairKeyExtractorISD_EENS_8PairHashIS7_S7_EENS_18HashMapValueTraitsINS_10HashTraitsIS8_EENSJ_ISC_EEEESK_E16lookupForWritingINS_22IdentityHashTranslatorISH_EES8_EENS2_IPSD_bEERKT0_
__ZN3WTF9HashTableINSt3__14pairIPFxPN3JSC9ExecStateEES7_EENS_12KeyValuePairIS8_NS3_4WeakINS3_16NativeExecutableEEEEENS_24KeyValuePairKeyExtractorISD_EENS_8PairHashIS7_S7_EENS_18HashMapValueTraitsINS_10HashTraitsIS8_EENSJ_ISC_EEEESK_E3addINS_17HashMapTranslatorISM_SH_EES8_NS3_8PassWeakISB_EEEENS_18HashTableAddResultINS_17HashTableIteratorIS8_SD_SF_SH_SM_SK_EEEERKT0_RKT1_
__ZN3WTF9HashTableINSt3__14pairIPFxPN3JSC9ExecStateEES7_EENS_12KeyValuePairIS8_NS3_4WeakINS3_16NativeExecutableEEEEENS_24KeyValuePairKeyExtractorISD_EENS_8PairHashIS7_S7_EENS_18HashMapValueTraitsINS_10HashTraitsIS8_EENSJ_ISC_EEEESK_E6lookupINS_22IdentityHashTranslatorISH_EES8_EEPSD_RKT0_
__ZN3WTF9HashTableINSt3__14pairIPFxPN3JSC9ExecStateEES7_EENS_12KeyValuePairIS8_NS3_4WeakINS3_16NativeExecutableEEEEENS_24KeyValuePairKeyExtractorISD_EENS_8PairHashIS7_S7_EENS_18HashMapValueTraitsINS_10HashTraitsIS8_EENSJ_ISC_EEEESK_E6rehashEi
__ZN3JSC10JSFunction14finishCreationEPNS_9ExecStateEPNS_16NativeExecutableEiRKN3WTF6StringE
__ZN3JSC8jsStringEPNS_9ExecStateERKN3WTF6StringE
__ZN3JSC9Structure36suggestedNewOutOfLineStorageCapacityEv
__ZN3JSC13PropertyTable6rehashEj
__ZN3JSC15ObjectPrototype6createEPNS_9ExecStateEPNS_14JSGlobalObjectEPNS_9StructureE
__ZN3JSC15ObjectPrototype14finishCreationEPNS_9ExecStateEPNS_14JSGlobalObjectE
__ZN3JSC12PrototypeMap12addPrototypeEPNS_8JSObjectE
__ZN3JSC9WeakGCMapIPNS_8JSObjectES1_N3WTF7PtrHashIS2_EENS3_10HashTraitsIS2_EEE3addERKS2_NS_8PassWeakIS1_EE
__ZN3WTF9HashTableIPN3JSC8JSObjectENS_12KeyValuePairIS3_NS1_4WeakIS2_EEEENS_24KeyValuePairKeyExtractorIS7_EENS_7PtrHashIS3_EENS_18HashMapValueTraitsINS_10HashTraitsIS3_EENSD_IS6_EEEESE_E16lookupForWritingINS_22IdentityHashTranslatorISB_EES3_EENSt3__14pairIPS7_bEERKT0_
__ZN3WTF9HashTableIPN3JSC8JSObjectENS_12KeyValuePairIS3_NS1_4WeakIS2_EEEENS_24KeyValuePairKeyExtractorIS7_EENS_7PtrHashIS3_EENS_18HashMapValueTraitsINS_10HashTraitsIS3_EENSD_IS6_EEEESE_E3addINS_17HashMapTranslatorISG_SB_EES3_NS1_8PassWeakIS2_EEEENS_18HashTableAddResultINS_17HashTableIteratorIS3_S7_S9_SB_SG_SE_EEEERKT0_RKT1_
__ZN3WTF9HashTableIPN3JSC8JSObjectENS_12KeyValuePairIS3_NS1_4WeakIS2_EEEENS_24KeyValuePairKeyExtractorIS7_EENS_7PtrHashIS3_EENS_18HashMapValueTraitsINS_10HashTraitsIS3_EENSD_IS6_EEEESE_E6rehashEi
__ZN3JSC8JSObject23putDirectNativeFunctionEPNS_9ExecStateEPNS_14JSGlobalObjectERKNS_12PropertyNameEjPFxS2_ENS_9IntrinsicEj
__ZNK3JSC24StructureTransitionTable8containsEPN3WTF10StringImplEj
__ZN3JSC8JSObject17putDirectAccessorEPNS_9ExecStateENS_12PropertyNameENS_7JSValueEj
__ZN3JSC12PropertyName7asIndexEv
__ZN3JSC16JSCallbackObjectINS_20JSDestructibleObjectEE15createStructureERNS_2VMEPNS_14JSGlobalObjectENS_7JSValueE
__ZN3JSC16JSCallbackObjectINS_18JSAPIWrapperObjectEE15createStructureERNS_2VMEPNS_14JSGlobalObjectENS_7JSValueE
__ZN3JSC14ArrayPrototype6createEPNS_9ExecStateEPNS_14JSGlobalObjectEPNS_9StructureE
__ZN3JSC15StringPrototype6createEPNS_9ExecStateEPNS_14JSGlobalObjectEPNS_9StructureE
__ZN3JSC12StringObjectC2ERNS_2VMEPNS_9StructureE
__ZN3JSC15StringPrototype14finishCreationEPNS_9ExecStateEPNS_14JSGlobalObjectEPNS_8JSStringE
__ZN3JSC12StringObject14finishCreationERNS_2VMEPNS_8JSStringE
__ZN3JSC2VM15getHostFunctionEPFxPNS_9ExecStateEENS_9IntrinsicE
__ZN3JSC9JITThunks16hostFunctionStubEPNS_2VMEPFxPNS_9ExecStateEEPFNS_21MacroAssemblerCodeRefES2_ENS_9IntrinsicE
__ZN3JSC10Identifier11addSlowCaseEPNS_9ExecStateEPN3WTF10StringImplE
__ZN3JSC15IdentifierTable3addEPN3WTF10StringImplE
__ZN3JSC20charAtThunkGeneratorEPNS_2VME
__ZN3JSC19SpecializedThunkJITC2Ei
__ZN3JSC22AbstractMacroAssemblerINS_12X86AssemblerEE8JumpList6appendENS2_4JumpE
__ZN3JSCL14stringCharLoadERNS_19SpecializedThunkJITEPNS_2VME
__ZN3JSC14JSInterfaceJIT14emitLoadJSCellEjNS_12X86Registers10RegisterIDE
__ZN3WTF6VectorIN3JSC22AbstractMacroAssemblerINS1_12X86AssemblerEE4JumpELm2ENS_15CrashOnOverflowEE15reserveCapacityEm
__ZN3JSC14JSInterfaceJIT13emitLoadInt32EjNS_12X86Registers10RegisterIDE
__ZN3JSC12X86Assembler23X86InstructionFormatter9oneByteOpENS0_15OneByteOpcodeIDEiNS_12X86Registers10RegisterIDE
__ZN3JSC12X86Assembler23X86InstructionFormatter9twoByteOpENS0_15TwoByteOpcodeIDEiNS_12X86Registers10RegisterIDES4_ii
__ZN3JSC12X86Assembler23X86InstructionFormatter11memoryModRMEiNS_12X86Registers10RegisterIDES3_ii
__ZN3JSC22AbstractMacroAssemblerINS_12X86AssemblerEE8JumpList4linkEPS2_
__ZNK3JSC22AbstractMacroAssemblerINS_12X86AssemblerEE4Jump4linkEPS2_
__ZN3JSCL12charToStringERNS_19SpecializedThunkJITEPNS_2VMENS_12X86Registers10RegisterIDES5_S5_
__ZN3JSC12X86Assembler23X86InstructionFormatter11oneByteOp64ENS0_15OneByteOpcodeIDEiNS_12X86Registers10RegisterIDES4_ii
__ZN3JSC9JITThunks13ctiNativeCallEPNS_2VME
__ZN3JSC19SpecializedThunkJIT8finalizeERNS_2VMENS_21MacroAssemblerCodePtrEPKc
__ZN3JSC24charCodeAtThunkGeneratorEPNS_2VME
__ZN3JSC19SpecializedThunkJIT11returnInt32ENS_12X86Registers10RegisterIDE
__ZN3JSC19SpecializedThunkJIT16tagReturnAsInt32Ev
__ZN3JSC16BooleanPrototypeC1EPNS_9ExecStateEPNS_9StructureE
__ZN3JSC13BooleanObjectC2ERNS_2VMEPNS_9StructureE
__ZN3JSC16BooleanPrototype14finishCreationEPNS_9ExecStateEPNS_14JSGlobalObjectE
__ZN3JSC13BooleanObject14finishCreationERNS_2VME
__ZN3JSC15NumberPrototypeC1EPNS_9ExecStateEPNS_9StructureE
__ZN3JSC12NumberObjectC2ERNS_2VMEPNS_9StructureE
__ZN3JSC15NumberPrototype14finishCreationEPNS_9ExecStateEPNS_14JSGlobalObjectE
__ZN3JSC12NumberObject14finishCreationERNS_2VME
__ZN3JSC13DatePrototypeC1EPNS_9ExecStateEPNS_9StructureE
__ZN3JSC12DateInstanceC2EPNS_9ExecStateEPNS_9StructureE
__ZN3JSC13DatePrototype14finishCreationEPNS_9ExecStateEPNS_14JSGlobalObjectE
__ZN3JSC12DateInstance14finishCreationERNS_2VME
__ZN3JSC6RegExp6createERNS_2VMERKN3WTF6StringENS_11RegExpFlagsE
__ZN3JSC11RegExpCache14lookupOrCreateERKN3WTF6StringENS_11RegExpFlagsE
__ZN3JSC6RegExp20createWithoutCachingERNS_2VMERKN3WTF6StringENS_11RegExpFlagsE
__ZN3JSC4Yarr11YarrPatternC1ERKN3WTF6StringEbbPPKc
__ZN3JSC4Yarr11YarrPattern7compileERKN3WTF6StringE
__ZN3JSC4Yarr22YarrPatternConstructorC2ERNS0_11YarrPatternE
__ZN3WTF10PassOwnPtrIN3JSC4Yarr18PatternDisjunctionEED2Ev
__ZN3JSC4Yarr18PatternDisjunction17addNewAlternativeEv
__ZN3WTF6VectorINS_6OwnPtrIN3JSC4Yarr18PatternAlternativeEEELm0ENS_15CrashOnOverflowEE14expandCapacityEm
__ZN3WTF6OwnPtrIN3JSC4Yarr18PatternDisjunctionEED2Ev
__ZN3JSC4Yarr5parseINS0_22YarrPatternConstructorEEEPKcRT_RKN3WTF6StringEj
__ZN3JSC4Yarr6ParserINS0_22YarrPatternConstructorEhE11parseTokensEv
__ZN3JSC4Yarr22YarrPatternConstructor33optimizeDotStarWrappedExpressionsEv
__ZN3JSC4Yarr22YarrPatternConstructor11optimizeBOLEv
__ZN3JSC4Yarr22YarrPatternConstructor23setupAlternativeOffsetsEPNS0_18PatternAlternativeEjj
__ZN3JSC4Yarr11YarrPatternD2Ev
__ZN3WTF9HashTableIN3JSC9RegExpKeyENS_12KeyValuePairIS2_NS1_4WeakINS1_6RegExpEEEEENS_24KeyValuePairKeyExtractorIS7_EENS2_4HashENS_18HashMapValueTraitsINS_10HashTraitsIS2_EENSC_IS6_EEEESD_E16lookupForWritingINS_22IdentityHashTranslatorISA_EES2_EENSt3__14pairIPS7_bEERKT0_
__ZN3WTF9HashTableIN3JSC9RegExpKeyENS_12KeyValuePairIS2_NS1_4WeakINS1_6RegExpEEEEENS_24KeyValuePairKeyExtractorIS7_EENS2_4HashENS_18HashMapValueTraitsINS_10HashTraitsIS2_EENSC_IS6_EEEESD_E3addINS_17HashMapTranslatorISF_SA_EES2_NS1_8PassWeakIS5_EEEENS_18HashTableAddResultINS_17HashTableIteratorIS2_S7_S9_SA_SF_SD_EEEERKT0_RKT1_
__ZN3WTF9HashTableIN3JSC9RegExpKeyENS_12KeyValuePairIS2_NS1_4WeakINS1_6RegExpEEEEENS_24KeyValuePairKeyExtractorIS7_EENS2_4HashENS_18HashMapValueTraitsINS_10HashTraitsIS2_EENSC_IS6_EEEESD_E6lookupINS_22IdentityHashTranslatorISA_EES2_EEPS7_RKT0_
__ZN3WTF9HashTableIN3JSC9RegExpKeyENS_12KeyValuePairIS2_NS1_4WeakINS1_6RegExpEEEEENS_24KeyValuePairKeyExtractorIS7_EENS2_4HashENS_18HashMapValueTraitsINS_10HashTraitsIS2_EENSC_IS6_EEEESD_E6rehashEi
__ZN3WTF9HashTableIN3JSC9RegExpKeyENS_12KeyValuePairIS2_NS1_4WeakINS1_6RegExpEEEEENS_24KeyValuePairKeyExtractorIS7_EENS2_4HashENS_18HashMapValueTraitsINS_10HashTraitsIS2_EENSC_IS6_EEEESD_E8reinsertERS7_
__ZN3JSC15RegExpPrototypeC1EPNS_14JSGlobalObjectEPNS_9StructureEPNS_6RegExpE
__ZN3JSC12RegExpObjectC2EPNS_14JSGlobalObjectEPNS_9StructureEPNS_6RegExpE
__ZN3JSC12RegExpObject14finishCreationEPNS_14JSGlobalObjectE
__ZN3JSC14ErrorPrototypeC1EPNS_9ExecStateEPNS_9StructureE
__ZN3JSC13ErrorInstanceC2ERNS_2VMEPNS_9StructureE
__ZN3JSC14ErrorPrototype14finishCreationEPNS_9ExecStateEPNS_14JSGlobalObjectE
__ZN3JSC17ObjectConstructorC1EPNS_14JSGlobalObjectEPNS_9StructureE
__ZN3JSC17ObjectConstructor14finishCreationEPNS_9ExecStateEPNS_15ObjectPrototypeE
__ZN3JSC10Identifier3addEPNS_9ExecStateEPKc
__ZN3JSC19FunctionConstructorC1EPNS_14JSGlobalObjectEPNS_9StructureE
__ZN3JSC19FunctionConstructor14finishCreationEPNS_9ExecStateEPNS_17FunctionPrototypeE
__ZN3JSC16ArrayConstructorC1EPNS_14JSGlobalObjectEPNS_9StructureE
__ZN3JSC16ArrayConstructor14finishCreationEPNS_9ExecStateEPNS_14ArrayPrototypeE
__ZN3JSC17StringConstructorC1EPNS_14JSGlobalObjectEPNS_9StructureE
__ZN3JSC17StringConstructor14finishCreationEPNS_9ExecStateEPNS_15StringPrototypeE
__ZN3JSC18BooleanConstructorC1EPNS_14JSGlobalObjectEPNS_9StructureE
__ZN3JSC18BooleanConstructor14finishCreationEPNS_9ExecStateEPNS_16BooleanPrototypeE
__ZN3JSC17NumberConstructorC1EPNS_14JSGlobalObjectEPNS_9StructureE
__ZN3JSC17NumberConstructor14finishCreationEPNS_9ExecStateEPNS_15NumberPrototypeE
__ZN3JSC15DateConstructorC1EPNS_14JSGlobalObjectEPNS_9StructureE
__ZN3JSC15DateConstructor14finishCreationEPNS_9ExecStateEPNS_13DatePrototypeE
__ZN3JSC17RegExpConstructorC1EPNS_14JSGlobalObjectEPNS_9StructureEPNS_15RegExpPrototypeE
__ZN3JSC17RegExpConstructor14finishCreationEPNS_9ExecStateEPNS_15RegExpPrototypeE
__ZN3JSC16ErrorConstructorC1EPNS_14JSGlobalObjectEPNS_9StructureE
__ZN3JSC16ErrorConstructor14finishCreationEPNS_9ExecStateEPNS_14ErrorPrototypeE
__ZN3JSC22NativeErrorConstructorC1EPNS_14JSGlobalObjectEPNS_9StructureE
__ZN3JSC22NativeErrorConstructor14finishCreationEPNS_9ExecStateEPNS_14JSGlobalObjectEPNS_9StructureERKN3WTF6StringE
__ZN3JSC20NativeErrorPrototypeC1EPNS_9ExecStateEPNS_9StructureE
__ZN3JSC14ErrorPrototypeC2EPNS_9ExecStateEPNS_9StructureE
__ZN3JSC20NativeErrorPrototype14finishCreationEPNS_9ExecStateEPNS_14JSGlobalObjectERKN3WTF6StringEPNS_22NativeErrorConstructorE
__ZN3WTF9HashTableINSt3__14pairINS_6RefPtrINS_10StringImplEEEjEENS_12KeyValuePairIS6_N3JSC4WeakINS8_9StructureEEEEENS_24KeyValuePairKeyExtractorISC_EENS8_24StructureTransitionTable4HashENS_18HashMapValueTraitsINS_10HashTraitsIS6_EENSI_ISB_EEEESJ_E3addINS_17HashMapTranslatorISL_SG_EES6_NS8_8PassWeakISA_EEEENS_18HashTableAddResultINS_17HashTableIteratorIS6_SC_SE_SG_SL_SJ_EEEERKT0_RKT1_
__ZN3WTF9HashTableINSt3__14pairINS_6RefPtrINS_10StringImplEEEjEENS_12KeyValuePairIS6_N3JSC4WeakINS8_9StructureEEEEENS_24KeyValuePairKeyExtractorISC_EENS8_24StructureTransitionTable4HashENS_18HashMapValueTraitsINS_10HashTraitsIS6_EENSI_ISB_EEEESJ_E6rehashEi
__ZN3WTF9HashTableINSt3__14pairINS_6RefPtrINS_10StringImplEEEjEENS_12KeyValuePairIS6_N3JSC4WeakINS8_9StructureEEEEENS_24KeyValuePairKeyExtractorISC_EENS8_24StructureTransitionTable4HashENS_18HashMapValueTraitsINS_10HashTraitsIS6_EENSI_ISB_EEEESJ_E8reinsertERSC_
__ZN3JSC17weakClearSlowCaseERPNS_8WeakImplE
__ZN3JSC10JSONObjectC1EPNS_14JSGlobalObjectEPNS_9StructureE
__ZN3JSC10JSONObject14finishCreationEPNS_14JSGlobalObjectE
__ZN3JSC10MathObjectC1EPNS_14JSGlobalObjectEPNS_9StructureE
__ZN3JSC10MathObject14finishCreationEPNS_9ExecStateEPNS_14JSGlobalObjectE
__ZN3JSC12SmallStrings24singleCharacterStringRepEh
__ZN3JSC19SmallStringsStorageC2Ev
__ZN3WTF10StringImpl19createUninitializedEjRPh
__ZN3JSC10Identifier3addEPNS_2VMEPN3WTF10StringImplE
__ZN3JSC14JSGlobalObject16addStaticGlobalsEPNS0_18GlobalPropertyInfoEi
__ZN3JSC25JSSegmentedVariableObject12addRegistersEi
__ZN3WTF15SegmentedVectorIN3JSC12WriteBarrierINS1_7UnknownEEELm16ELm32EE13ensureSegmentEmm
__ZN3WTF6VectorIPNS0_IN3JSC12WriteBarrierINS1_7UnknownEEELm16ENS_15CrashOnOverflowEEELm0ES5_E14expandCapacityEm
__ZN3WTF9HashTableINS_6RefPtrINS_10StringImplEEENS_12KeyValuePairIS3_N3JSC16SymbolTableEntryEEENS_24KeyValuePairKeyExtractorIS7_EENS5_17IdentifierRepHashENS_22KeyValuePairHashTraitsINS_10HashTraitsIS3_EENS5_26SymbolTableIndexHashTraitsEEESD_E3addINS_17HashMapTranslatorISF_SA_EEPS2_S6_EENS_18HashTableAddResultINS_17HashTableIteratorIS3_S7_S9_SA_SF_SD_EEEERKT0_RKT1_
__ZN3WTF9HashTableINS_6RefPtrINS_10StringImplEEENS_12KeyValuePairIS3_N3JSC16SymbolTableEntryEEENS_24KeyValuePairKeyExtractorIS7_EENS5_17IdentifierRepHashENS_22KeyValuePairHashTraitsINS_10HashTraitsIS3_EENS5_26SymbolTableIndexHashTraitsEEESD_E6rehashEi
__ZN3JSC8JSObject12setPrototypeERNS_2VMENS_7JSValueE
__ZN3JSC9Structure25changePrototypeTransitionERNS_2VMEPS0_NS_7JSValueE
__ZN3JSC13PropertyTable5cloneERNS_2VMEPNS_6JSCellERKS0_
__ZN3JSC13PropertyTableC2ERNS_2VMEPNS_6JSCellERKS0_
__ZNK3JSC9Structure43anyObjectInChainMayInterceptIndexedAccessesEv
__ZN3JSC9WeakGCMapIPNS_8JSObjectES1_N3WTF7PtrHashIS2_EENS3_10HashTraitsIS2_EEE5gcMapEv
__ZN3WTF13hashTableSwapINS_6RefPtrINS_10StringImplEEEN3JSC16SymbolTableEntryEEEvRNS_12KeyValuePairIT_T0_EESA_
__ZN3JSC4Heap12addFinalizerEPNS_6JSCellEPFvS2_E
__ZN3JSC7JSProxy9setTargetERNS_2VMEPNS_14JSGlobalObjectE
__ZN3JSC9WeakGCMapIPNS_8JSObjectES1_N3WTF7PtrHashIS2_EENS3_10HashTraitsIS2_EEE4findERKS2_
__ZN3JSC4Heap26reportAbandonedObjectGraphEv
__ZN3JSC14JSGlobalObject10globalExecEv
__ZN3JSC4Heap7protectENS_7JSValueE
__ZN3JSC12JSLockHolderC1EPNS_9ExecStateE
__ZN3JSC7JSProxy18getOwnPropertySlotEPNS_6JSCellEPNS_9ExecStateENS_12PropertyNameERNS_12PropertySlotE
__ZN3JSC14JSGlobalObject18getOwnPropertySlotEPNS_6JSCellEPNS_9ExecStateENS_12PropertyNameERNS_12PropertySlotE
__ZN3JSC21getStaticFunctionSlotINS_25JSSegmentedVariableObjectEEEbPNS_9ExecStateEPKNS_9HashTableEPNS_8JSObjectENS_12PropertyNameERNS_12PropertySlotE
__ZN3JSC9Structure3getERNS_2VMENS_12PropertyNameE
__ZN3JSC8JSObject22getOwnPropertySlotSlowEPNS_9ExecStateENS_12PropertyNameERNS_12PropertySlotE
__ZNK3JSC9HashTable11createTableEPNS_2VME
__ZN3JSC14symbolTableGetINS_14JSGlobalObjectEEEbPT_NS_12PropertyNameERNS_12PropertySlotE
__ZN3WTF12AtomicString4findEPKNS_10StringImplE
__ZN3JSC15IdentifierTable6removeEPN3WTF10StringImplE
__ZN3WTF7HashSetIPNS_10StringImplENS_10StringHashENS_10HashTraitsIS2_EEE6removeENS_29HashTableConstIteratorAdapterINS_9HashTableIS2_S2_NS_17IdentityExtractorES3_S5_S5_EES2_EE
__ZN3WTF16RunLoopTimerBase5startEdd
__ZN3WTF16RunLoopTimerBase8scheduleERKNS_7HashSetINS_6RefPtrINS_12SchedulePairEEENS_16SchedulePairHashENS_10HashTraitsIS4_EEEE
__ZN3WTF16RunLoopTimerBase4stopEv
__ZN3WTF16RunLoopTimerBaseD2Ev
__ZN3WTF20TCMalloc_ThreadCache21ReleaseToCentralCacheEmi
__ZN3WTF25TCMalloc_Central_FreeList14MakeCacheSpaceEv
__ZN3WTF13StringBuilder6appendEPKhj
__ZN3WTF13StringBuilder23appendUninitializedSlowIhEEPT_j
__ZN3WTF13StringBuilder11shrinkToFitEv
__ZN3WTF13StringBuilder16reallocateBufferIhEEvj
__ZN3WTF10StringImpl10reallocateENS_10PassRefPtrIS0_EEjRPh
__ZN3WTF13StringBuilder15reserveCapacityEj
__ZNK3WTF13StringBuilder11reifyStringEv
__ZN3WTF6String6numberEi
__ZN3WTF22charactersToUIntStrictEPKtmPbi
__ZN3WTFL14toIntegralTypeIjtEET_PKT0_mPbi
__ZN3JSC9HeapTimer12timerDidFireEP16__CFRunLoopTimerPv
__ZN3JSC4Heap16activityCallbackEv
__ZN3JSC4Heap7sweeperEv
__ZN3JSC14MachineThreads16addCurrentThreadEv
__ZN3JSC18IncrementalSweeper6doWorkEv
__ZN3JSC18IncrementalSweeper7doSweepEd
__ZN3JSC12APIEntryShimD2Ev
__ZN3JSC6JSLock6unlockEv
__ZN3JSCL14releaseAPILockEPKv
__ZN3JSC25DefaultGCActivityCallback6doWorkEv
__ZN3JSC4Heap10isPagedOutEd
__ZN3JSC11MarkedSpace10isPagedOutEd
__ZN3JSC15MarkedAllocator10isPagedOutEd
__ZN3JSC11CopiedSpace10isPagedOutEd
__ZN3JSC4Heap7collectENS0_11SweepToggleE
__ZN3JSC25DefaultGCActivityCallback11willCollectEv
__ZN3JSC11MarkedSpace28canonicalizeCellLivenessDataEv
__ZN3JSC11MarkedBlock28canonicalizeCellLivenessDataERKNS0_8FreeListE
__ZN3JSC4Heap9markRootsEv
__ZN3JSC17ConservativeRootsC1EPKNS_14MarkedBlockSetEPNS_11CopiedSpaceE
__ZN3JSC17JITStubRoutineSet10clearMarksEv
__ZN3JSC14MachineThreads23gatherConservativeRootsERNS_17ConservativeRootsEPv
__ZN3JSC14MachineThreads23gatherFromCurrentThreadERNS_17ConservativeRootsEPv
__ZN3JSC17ConservativeRoots3addEPvS1_
__ZN3JSC17ConservativeRoots17genericAddPointerINS_13DummyMarkHookEEEvPvNS_15TinyBloomFilterERT_
__ZN3JSC11CopiedSpace14pinIfNecessaryEPv
__ZN3JSC13DFGCodeBlocks10clearMarksEv
__ZN3JSC7JSStack23gatherConservativeRootsERNS_17ConservativeRootsERNS_17JITStubRoutineSetERNS_13DFGCodeBlocksE
__ZN3JSC17ConservativeRoots3addEPvS1_RNS_17JITStubRoutineSetERNS_13DFGCodeBlocksE
__ZN3JSC2VM23gatherConservativeRootsERNS_17ConservativeRootsE
__ZN3JSC11MarkedSpace12forEachBlockINS_10ClearMarksEEENT_10ReturnTypeERS3_
__ZN3JSC18GCThreadSharedData15didStartMarkingEv
__ZN3WTF15ThreadCondition9broadcastEv
__ZN3JSC11SlotVisitor5setupEv
__ZN3JSC8GCThread11slotVisitorEv
__ZN3JSC12SmallStrings21visitStrongReferencesERNS_11SlotVisitorE
__ZN3JSC11SlotVisitor15drainFromSharedENS0_15SharedDrainModeE
__ZN3JSC11SlotVisitor6appendERNS_17ConservativeRootsE
__ZN3JSC11SlotVisitor19donateKnownParallelEv
__ZN3WTF5Mutex7tryLockEv
__ZN3JSC11SlotVisitor5drainEv
__ZN3JSC14MarkStackArray6refillEv
__ZN3JSC8JSString13visitChildrenEPNS_6JSCellERNS_11SlotVisitorE
__ZN3JSC9Structure13visitChildrenEPNS_6JSCellERNS_11SlotVisitorE
__ZN3JSC4Heap20markProtectedObjectsERNS_15HeapRootVisitorE
__ZN3JSC7JSProxy13visitChildrenEPNS_6JSCellERNS_11SlotVisitorE
__ZN3JSC8JSObject13visitChildrenEPNS_6JSCellERNS_11SlotVisitorE
__ZN3JSC14JSGlobalObject13visitChildrenEPNS_6JSCellERNS_11SlotVisitorE
__ZN3JSC25JSSegmentedVariableObject13visitChildrenEPNS_6JSCellERNS_11SlotVisitorE
__ZN3JSC19JSSymbolTableObject13visitChildrenEPNS_6JSCellERNS_11SlotVisitorE
__ZN3JSC7JSScope13visitChildrenEPNS_6JSCellERNS_11SlotVisitorE
__ZN3JSC11CopiedBlock15reportLiveBytesEPNS_6JSCellEj
__ZN3JSC13PropertyTable13visitChildrenEPNS_6JSCellERNS_11SlotVisitorE
__ZN3JSC12RegExpObject13visitChildrenEPNS_6JSCellERNS_11SlotVisitorE
__ZN3JSC6JSCell13visitChildrenEPS0_RNS_11SlotVisitorE
__ZN3JSC15JSWrapperObject13visitChildrenEPNS_6JSCellERNS_11SlotVisitorE
__ZN3JSC10JSFunction13visitChildrenEPNS_6JSCellERNS_11SlotVisitorE
__ZN3JSC14MarkStackArray17donateSomeCellsToERS0_
__ZN3JSC12GetterSetter13visitChildrenEPNS_6JSCellERNS_11SlotVisitorE
__ZN3JSC14MarkStackArray18stealSomeCellsFromERS0_m
__ZN3JSC17RegExpConstructor13visitChildrenEPNS_6JSCellERNS_11SlotVisitorE
__ZN3JSC18RegExpCachedResult13visitChildrenERNS_11SlotVisitorE
__ZN3JSC22NativeErrorConstructor13visitChildrenEPNS_6JSCellERNS_11SlotVisitorE
__ZN3JSC11SlotVisitor16mergeOpaqueRootsEv
__ZN3WTF9HashTableIPvS1_NS_17IdentityExtractorENS_7PtrHashIS1_EENS_10HashTraitsIS1_EES6_E3addINS_22IdentityHashTranslatorIS4_EES1_S1_EENS_18HashTableAddResultINS_17HashTableIteratorIS1_S1_S2_S4_S6_S6_EEEERKT0_RKT1_
__ZN3JSC4Heap19markTempSortVectorsERNS_15HeapRootVisitorE
__ZN3JSC9HandleSet18visitStrongHandlesERNS_15HeapRootVisitorE
__ZN3JSC11HandleStack5visitERNS_15HeapRootVisitorE
__ZN3JSC13DFGCodeBlocks21traceMarkedCodeBlocksERNS_11SlotVisitorE
__ZN3JSC17JITStubRoutineSet23traceMarkedStubRoutinesERNS_11SlotVisitorE
__ZN3JSC11MarkedSpace13visitWeakSetsERNS_15HeapRootVisitorE
__ZN3JSC11MarkedSpace12forEachBlockINS_12VisitWeakSetEEENT_10ReturnTypeERS3_
__ZN3JSC9WeakBlock5visitERNS_15HeapRootVisitorE
__ZN3JSC11SlotVisitor21harvestWeakReferencesEv
__ZN3JSC18GCThreadSharedData16didFinishMarkingEv
__ZN3JSC11SlotVisitor5resetEv
__ZN3JSC18GCThreadSharedData13resetChildrenEv
__ZN3JSC18GCThreadSharedData5resetEv
__ZN3JSC17ConservativeRootsD1Ev
__ZN3JSC11MarkedSpace12reapWeakSetsEv
__ZN3JSC11MarkedSpace12forEachBlockINS_11ReapWeakSetEEENT_10ReturnTypeERS3_
__ZN3JSC9WeakBlock4reapEv
__ZN3WTF6VectorIPN3JSC11MarkedBlockELm0ENS_15CrashOnOverflowEE14expandCapacityEm
__ZN3JSC11MarkedSpace12forEachBlockINS_26MarkedBlockSnapshotFunctorEEENT_10ReturnTypeERS3_
__ZN3JSC4Heap17copyBackingStoresEv
__ZN3JSC11CopiedSpace14startedCopyingEv
__ZN3JSC11MarkedSpace12forEachBlockINS_8CapacityEEENT_10ReturnTypeERS3_
__ZN3JSC11CopiedSpace11doneCopyingEv
__ZN3JSC11SlotVisitor31finalizeUnconditionalFinalizersEv
__ZN3JSC12SmallStrings20finalizeSmallStringsEv
__ZN3JSC4Heap26deleteUnmarkedCompiledCodeEv
__ZN3JSC13DFGCodeBlocks34deleteUnmarkedJettisonedCodeBlocksEv
__ZN3JSC17JITStubRoutineSet36deleteUnmarkedJettisonedStubRoutinesEv
__ZN3JSC2VM25clearSourceProviderCachesEv
__ZN3JSC18IncrementalSweeper13startSweepingERN3WTF6VectorIPNS_11MarkedBlockELm0ENS1_15CrashOnOverflowEEE
__ZN3WTF6VectorIPN3JSC11MarkedBlockELm0ENS_15CrashOnOverflowEEaSERKS5_
__ZN3JSC11MarkedSpace15resetAllocatorsEv
__ZN3JSC11MarkedSpace12forEachBlockINS_4SizeEEENT_10ReturnTypeERS3_
__ZN3JSC11CopiedSpace4sizeEv
__ZN3JSC9WeakBlock5sweepEv
__ZN3JSC11MarkedBlock16specializedSweepILNS0_10BlockStateE3ELNS0_9SweepModeE1ELNS0_14DestructorTypeE2EEENS0_8FreeListEv
__ZN3JSC11MarkedBlock16specializedSweepILNS0_10BlockStateE3ELNS0_9SweepModeE1ELNS0_14DestructorTypeE1EEENS0_8FreeListEv
__ZN3JSC9Structure7destroyEPNS_6JSCellE
__ZN3JSC9StructureD2Ev
__ZN3JSC7JSProxy3putEPNS_6JSCellEPNS_9ExecStateENS_12PropertyNameENS_7JSValueERNS_15PutPropertySlotE
__ZN3JSC14JSGlobalObject3putEPNS_6JSCellEPNS_9ExecStateENS_12PropertyNameENS_7JSValueERNS_15PutPropertySlotE
__ZN3JSC14symbolTablePutINS_14JSGlobalObjectEEEbPT_PNS_9ExecStateENS_12PropertyNameENS_7JSValueEb
__ZN3JSC8JSObject3putEPNS_6JSCellEPNS_9ExecStateENS_12PropertyNameENS_7JSValueERNS_15PutPropertySlotE
__ZN3JSC8JSObject17putDirectInternalILNS0_7PutModeE0EEEbRNS_2VMENS_12PropertyNameENS_7JSValueEjRNS_15PutPropertySlotEPNS_6JSCellE
__ZN3JSC13PropertyTable7destroyEPNS_6JSCellE
__ZN3JSC13PropertyTableD2Ev
__ZN3WTF10StringImpl4findEPS0_j
__ZN3WTF10StringImpl7replaceEtt
__ZNK3WTF6String16removeCharactersEPFbtE
__ZN3WTF10StringImpl16removeCharactersEPFbtE
__ZN3WTF10StringImpl4findEPFbtEj
__ZN3WTF10StringImpl23reverseFindIgnoringCaseEPS0_j
__ZNK3WTF10StringImpl10startsWithEPKcjb
__ZN3WTF6String23make8BitFrom16BitSourceEPKtm
__ZN3WTF10StringImpl22containsOnlyWhitespaceEv
__ZN3WTF17equalIgnoringCaseEPKhS1_j
__ZN3WTF6String6appendEPKhj
__ZN3WTF10StringImpl5adoptERNS_12StringBufferIhEE
__ZNK3WTF6String20substringSharingImplEjj
__ZN3JSC11MarkedSpace17freeOrShrinkBlockEPNS_11MarkedBlockE
__ZN3JSC8JSString7destroyEPNS_6JSCellE
_JSGlobalContextCreate
__ZN3JSC2VM14sharedInstanceEv
__ZN3JSC12GlobalJSLockC1Ev
__ZN3JSC21createIdentifierTableEv
__ZN3JSC14MachineThreads29makeUsableFromMultipleThreadsEv
__ZN3JSC12GlobalJSLockD1Ev
_JSGlobalContextCreateInGroup
__ZN3JSC14JSGlobalObjectC1ERNS_2VMEPNS_9StructureEPKNS_23GlobalObjectMethodTableE
_JSGlobalContextRetain
_JSStringCreateWithCFString
_JSEvaluateScript
__ZNK14OpaqueJSString6stringEv
__ZN3JSC14SourceProviderC2ERKN3WTF6StringERKNS1_12TextPositionE
__ZN3JSC8evaluateEPNS_9ExecStateERKNS_10SourceCodeENS_7JSValueEPS5_
__ZN3JSC17ProgramExecutableC1EPNS_9ExecStateERKNS_10SourceCodeE
__ZN3JSC4Heap15addCompiledCodeEPNS_14ExecutableBaseE
__ZN3JSC14JSGlobalObject12toThisObjectEPNS_6JSCellEPNS_9ExecStateE
__ZN3JSC11Interpreter7executeEPNS_17ProgramExecutableEPNS_9ExecStateEPNS_8JSObjectE
__ZN3JSC19ExecutableAllocator19underMemoryPressureEv
__ZN3WTF13MetaAllocator17currentStatisticsEv
__ZN3JSC2VM14resetDateCacheEv
__ZN3JSC2VM19clearExceptionStackEv
__ZNK3JSC20StringSourceProvider6sourceEv
__ZN3JSC14JSGlobalObject22supportsRichSourceInfoEPKS0_
__ZN3JSC13LiteralParserIhE13tryJSONPParseERN3WTF6VectorINS_9JSONPDataELm0ENS2_15CrashOnOverflowEEEb
__ZN3JSC13LiteralParserIhE5Lexer3lexILNS_10ParserModeE2EEENS_9TokenTypeERNS_18LiteralParserTokenIhEE
__ZN3JSC10Identifier3addIhEEN3WTF10PassRefPtrINS2_10StringImplEEEPNS_2VMEPKT_i
__ZN3WTF6VectorIN3JSC14JSONPPathEntryELm0ENS_15CrashOnOverflowEE15reserveCapacityEm
__ZN3WTF6VectorIN3JSC9JSONPDataELm0ENS_15CrashOnOverflowEE14appendSlowCaseIS2_EEvRKT_
__ZN3WTF6VectorIN3JSC9JSONPDataELm0ENS_15CrashOnOverflowEE15reserveCapacityEm
__ZN3WTF6VectorIN3JSC14JSONPPathEntryELm0ENS_15CrashOnOverflowEEC2ERKS4_
__ZN3JSC6StrongINS_7UnknownEEC2ERKS2_
__ZN3JSC13LiteralParserIhE5parseENS_11ParserStateE
__ZNK3WTF6String5asciiEv
__ZN3WTF6String6formatEPKcz
__ZN3JSC20MarkedArgumentBufferD2Ev
__ZN3JSC13LiteralParserIhED2Ev
__ZN3JSC17ProgramExecutable26initializeGlobalPropertiesERNS_2VMEPNS_9ExecStateEPNS_7JSScopeE
__ZN3JSC14JSGlobalObject22createProgramCodeBlockEPNS_9ExecStateEPNS_17ProgramExecutableEPPNS_8JSObjectE
__ZN3JSC14JSGlobalObject17supportsProfilingEPKS0_
__ZN3JSC9CodeCache19getProgramCodeBlockERNS_2VMEPNS_17ProgramExecutableERKNS_10SourceCodeENS_18JSParserStrictnessENS_12DebuggerModeENS_12ProfilerModeERNS_11ParserErrorE
__ZN3JSC9CodeCache12getCodeBlockINS_24UnlinkedProgramCodeBlockENS_17ProgramExecutableEEEPT_RNS_2VMEPNS_7JSScopeEPT0_RKNS_10SourceCodeENS_18JSParserStrictnessENS_12DebuggerModeENS_12ProfilerModeERNS_11ParserErrorE
__ZN3JSC13SourceCodeKeyC2ERKNS_10SourceCodeERKN3WTF6StringENS0_8CodeTypeENS_18JSParserStrictnessE
__ZN3JSC12CodeCacheMap3addERKNS_13SourceCodeKeyERKNS_15SourceCodeValueE
__ZN3JSC6StrongINS_6JSCellEEC2ERKS2_
__ZN3WTF17HashMapTranslatorINS_18HashMapValueTraitsIN3JSC23SourceCodeKeyHashTraitsENS_10HashTraitsINS2_15SourceCodeValueEEEEENS2_17SourceCodeKeyHashEE9translateINS_12KeyValuePairINS2_13SourceCodeKeyES5_EESC_S5_EEvRT_RKT0_RKT1_
__ZN3JSC15SourceCodeValueaSERKS0_
__ZN3JSC9CodeCache16generateBytecodeINS_24UnlinkedProgramCodeBlockENS_17ProgramExecutableEEEPT_RNS_2VMEPNS_7JSScopeEPT0_RKNS_10SourceCodeENS_18JSParserStrictnessENS_12DebuggerModeENS_12ProfilerModeERNS_11ParserErrorE
__ZN3JSC5parseINS_11ProgramNodeEEEN3WTF10PassRefPtrIT_EEPNS_2VMERKNS_10SourceCodeEPNS_18FunctionParametersERKNS_10IdentifierENS_18JSParserStrictnessENS_12JSParserModeERNS_11ParserErrorE
__ZN3JSC6ParserINS_5LexerIhEEEC1EPNS_2VMERKNS_10SourceCodeEPNS_18FunctionParametersERKNS_10IdentifierENS_18JSParserStrictnessENS_12JSParserModeE
__ZN3JSC6ParserINS_5LexerIhEEEC2EPNS_2VMERKNS_10SourceCodeEPNS_18FunctionParametersERKNS_10IdentifierENS_18JSParserStrictnessENS_12JSParserModeE
__ZN3JSC5LexerIhEC1EPNS_2VME
__ZN3JSC5LexerIhE7setCodeERKNS_10SourceCodeEPNS_11ParserArenaE
__ZN3JSC11ParserArena15identifierArenaEv
__ZN3WTF15SegmentedVectorIN3JSC10IdentifierELm64ELm32EE17deleteAllSegmentsEv
__ZN3JSC2VM22addSourceProviderCacheEPNS_14SourceProviderE
__ZN3WTF9HashTableINS_6RefPtrIN3JSC14SourceProviderEEENS_12KeyValuePairIS4_NS1_INS2_19SourceProviderCacheEEEEENS_24KeyValuePairKeyExtractorIS8_EENS_7PtrHashIS4_EENS_22KeyValuePairHashTraitsINS_10HashTraitsIS4_EENSE_IS7_EEEESF_E15deallocateTableEPS8_i
__ZN3WTF9HashTableINS_6RefPtrIN3JSC14SourceProviderEEENS_12KeyValuePairIS4_NS1_INS2_19SourceProviderCacheEEEEENS_24KeyValuePairKeyExtractorIS8_EENS_7PtrHashIS4_EENS_22KeyValuePairHashTraitsINS_10HashTraitsIS4_EENSE_IS7_EEEESF_E16lookupForWritingINS_22IdentityHashTranslatorISC_EES4_EENSt3__14pairIPS8_bEERKT0_
__ZN3WTF9HashTableINS_6RefPtrIN3JSC14SourceProviderEEENS_12KeyValuePairIS4_NS1_INS2_19SourceProviderCacheEEEEENS_24KeyValuePairKeyExtractorIS8_EENS_7PtrHashIS4_EENS_22KeyValuePairHashTraitsINS_10HashTraitsIS4_EENSE_IS7_EEEESF_E3addINS_17HashMapTranslatorISH_SC_EEPS3_NS_10PassRefPtrIS6_EEEENS_18HashTableAddResultINS_17HashTableIteratorIS4_S8_SA_SC_SH_SF_EEEERKT0_RKT1_
__ZN3JSC6ParserINS_5LexerIhEEE9pushScopeEv
__ZN3JSC5ScopeC2ERKS0_
__ZN3JSC5ScopeD2Ev
__ZN3JSC5LexerIhE3lexEPNS_11JSTokenDataEPNS_15JSTokenLocationEjb
__ZN3WTF15SegmentedVectorIN3JSC10IdentifierELm64ELm32EE6appendIS2_EEvRKT_
__ZN3WTF6VectorIPNS0_IN3JSC10IdentifierELm64ENS_15CrashOnOverflowEEELm0ES3_E14expandCapacityEm
__ZN3JSC6ParserINS_5LexerIhEEE5parseINS_11ProgramNodeEEEN3WTF10PassRefPtrIT_EERNS_11ParserErrorE
__ZN3JSC6ParserINS_5LexerIhEEE10parseInnerEv
__ZN3JSC11ParserArena17allocateDeletableEm
__ZN3JSC11ParserArena20allocateFreeablePoolEv
__ZN3WTF6VectorIPN3JSC20ParserArenaDeletableELm0ENS_15CrashOnOverflowEE14expandCapacityEm
__ZN3JSC6ParserINS_5LexerIhEEE19parseSourceElementsILNS_18SourceElementsModeE0ENS_10ASTBuilderEEENT0_14SourceElementsERS7_
__ZN3JSC6ParserINS_5LexerIhEEE14parseStatementINS_10ASTBuilderEEENT_9StatementERS6_RPKNS_10IdentifierEPj
__ZN3JSC6ParserINS_5LexerIhEEE31parseExpressionOrLabelStatementINS_10ASTBuilderEEENT_9StatementERS6_
__ZN3JSC5LexerIhE16nextTokenIsColonEv
__ZN3JSC6ParserINS_5LexerIhEEE15parseExpressionINS_10ASTBuilderEEENT_10ExpressionERS6_
__ZN3JSC6ParserINS_5LexerIhEEE25parseAssignmentExpressionINS_10ASTBuilderEEENT_10ExpressionERS6_
__ZN3JSC6ParserINS_5LexerIhEEE21parseMemberExpressionINS_10ASTBuilderEEENT_10ExpressionERS6_
__ZN3WTF9HashTableINS_6RefPtrINS_10StringImplEEES3_NS_17IdentityExtractorEN3JSC17IdentifierRepHashENS_10HashTraitsIS3_EES8_E3addINS_22IdentityHashTranslatorIS6_EES3_S3_EENS_18HashTableAddResultINS_17HashTableIteratorIS3_S3_S4_S6_S8_S8_EEEERKT0_RKT1_
__ZN3WTF9HashTableINS_6RefPtrINS_10StringImplEEES3_NS_17IdentityExtractorEN3JSC17IdentifierRepHashENS_10HashTraitsIS3_EES8_E6rehashEi
__ZN3JSC10ASTBuilder26appendBinaryExpressionInfoERiPNS_14ExpressionNodeEiiijjb
__ZN3JSC10ASTBuilder21assignmentStackAppendERiPNS_14ExpressionNodeEjjjjiNS_8OperatorE
__ZN3JSC6ParserINS_5LexerIhEEE17parseFunctionInfoILNS_20FunctionRequirementsE0ELb0ENS_10ASTBuilderEEEbRT1_RPKNS_10IdentifierERNS7_19FormalParameterListERNS7_12FunctionBodyERjSH_RiSH_
__ZN3JSC16FunctionBodyNode6createEPNS_2VMERKNS_15JSTokenLocationES5_jb
__ZN3JSC11ParserArena14derefWithArenaEN3WTF10PassRefPtrINS_21ParserArenaRefCountedEEE
__ZN3WTF6VectorINS_6RefPtrIN3JSC21ParserArenaRefCountedEEELm0ENS_15CrashOnOverflowEE14expandCapacityEm
__ZN3JSC6ParserINS_5LexerIhEEE16popScopeInternalERNS_8ScopeRefEb
__ZN3JSC5Scope20collectFreeVariablesEPS0_b
__ZN3JSC10ASTBuilder18createFunctionExprERKNS_15JSTokenLocationEPKNS_10IdentifierEPNS_16FunctionBodyNodeEPNS_13ParameterNodeEjjiij
__ZN3JSC16FunctionBodyNode13finishParsingERKNS_10SourceCodeEPNS_13ParameterNodeERKNS_10IdentifierENS_27FunctionNameIsInScopeToggleE
__ZN3JSC16FunctionBodyNode13finishParsingEN3WTF10PassRefPtrINS_18FunctionParametersEEERKNS_10IdentifierENS_27FunctionNameIsInScopeToggleE
__ZN3JSC13StatementNode6setLocEjjii
__ZN3JSC10ASTBuilder14makeAssignNodeERKNS_15JSTokenLocationEPNS_14ExpressionNodeENS_8OperatorES5_bbiiijj
__ZNK3JSC11ResolveNode10isLocationEv
__ZNK3JSC11ResolveNode13isResolveNodeEv
__ZNK3JSC12FuncExprNode14isFuncExprNodeEv
__ZN3JSC14SourceElements6appendEPNS_13StatementNodeE
__ZNK3JSC13StatementNode16isEmptyStatementEv
__ZN3WTF6VectorIPN3JSC13StatementNodeELm0ENS_15CrashOnOverflowEE14expandCapacityEm
__ZN3JSC5LexerIhE19lexExpectIdentifierEPNS_11JSTokenDataEPNS_15JSTokenLocationEjb
__ZN3JSC5Scope16declareParameterEPKNS_10IdentifierE
__ZN3JSC6ParserINS_5LexerIhEEE19parseSourceElementsILNS_18SourceElementsModeE0ENS_13SyntaxCheckerEEENT0_14SourceElementsERS7_
__ZN3JSC6ParserINS_5LexerIhEEE14parseStatementINS_13SyntaxCheckerEEENT_9StatementERS6_RPKNS_10IdentifierEPj
__ZN3JSC6ParserINS_5LexerIhEEE16parseIfStatementINS_13SyntaxCheckerEEENT_9StatementERS6_
__ZN3JSC6ParserINS_5LexerIhEEE15parseExpressionINS_13SyntaxCheckerEEENT_10ExpressionERS6_
__ZN3JSC6ParserINS_5LexerIhEEE25parseAssignmentExpressionINS_13SyntaxCheckerEEENT_10ExpressionERS6_
__ZN3JSC13SyntaxChecker17BinaryExprContextC2ERS0_
__ZN3JSC13SyntaxChecker16UnaryExprContextC2ERS0_
__ZN3JSC6ParserINS_5LexerIhEEE21parseMemberExpressionINS_13SyntaxCheckerEEENT_10ExpressionERS6_
__ZN3JSC6ParserINS_5LexerIhEEE20parseReturnStatementINS_13SyntaxCheckerEEENT_9StatementERS6_
__ZN3JSC5Scope29copyCapturedVariablesToVectorERKN3WTF7HashSetINS1_6RefPtrINS1_10StringImplEEENS_17IdentifierRepHashENS1_10HashTraitsIS5_EEEERNS1_6VectorIS5_Lm0ENS1_15CrashOnOverflowEEE
__ZN3JSC23SourceProviderCacheItemC2ERKNS_41SourceProviderCacheItemCreationParametersE
__ZN3JSC41SourceProviderCacheItemCreationParametersD2Ev
__ZN3JSC19SourceProviderCache3addEiN3WTF10PassOwnPtrINS_23SourceProviderCacheItemEEE
__ZN3WTF9HashTableIiNS_12KeyValuePairIiNS_6OwnPtrIN3JSC23SourceProviderCacheItemEEEEENS_24KeyValuePairKeyExtractorIS6_EENS_7IntHashIjEENS_18HashMapValueTraitsINS_10HashTraitsIiEENSC_IS5_EEEESD_E3addINS_17HashMapTranslatorISF_SA_EEiNS_10PassOwnPtrIS4_EEEENS_18HashTableAddResultINS_17HashTableIteratorIiS6_S8_SA_SF_SD_EEEERKT0_RKT1_
__ZN3WTF9HashTableIiNS_12KeyValuePairIiNS_6OwnPtrIN3JSC23SourceProviderCacheItemEEEEENS_24KeyValuePairKeyExtractorIS6_EENS_7IntHashIjEENS_18HashMapValueTraitsINS_10HashTraitsIiEENSC_IS5_EEEESD_E6expandEv
__ZN3WTF9HashTableIiNS_12KeyValuePairIiNS_6OwnPtrIN3JSC23SourceProviderCacheItemEEEEENS_24KeyValuePairKeyExtractorIS6_EENS_7IntHashIjEENS_18HashMapValueTraitsINS_10HashTraitsIiEENSC_IS5_EEEESD_E8reinsertERS6_
__ZNK3JSC15DotAccessorNode10isLocationEv
__ZNK3JSC14ExpressionNode13isResolveNodeEv
__ZNK3JSC14ExpressionNode21isBracketAccessorNodeEv
__ZNK3JSC14ExpressionNode14isFuncExprNodeEv
__ZN3JSC6ParserINS_5LexerIhEEE19parseVarDeclarationINS_10ASTBuilderEEENT_9StatementERS6_
__ZN3JSC6ParserINS_5LexerIhEEE15declareVariableEPKNS_10IdentifierE
__ZN3WTF6VectorINSt3__14pairIPKN3JSC10IdentifierEjEELm0ENS_15CrashOnOverflowEE14expandCapacityEm
__ZN3JSC10ASTBuilder19createAssignResolveERKNS_15JSTokenLocationERKNS_10IdentifierEPNS_14ExpressionNodeEiiijj
__ZN3JSC5Scope20getCapturedVariablesERN3WTF7HashSetINS1_6RefPtrINS1_10StringImplEEENS_17IdentifierRepHashENS1_10HashTraitsIS5_EEEE
__ZN3JSC10ASTBuilderD2Ev
__ZN3JSC5LexerIhE5clearEv
__ZN3JSC11ProgramNode6createEPNS_2VMERKNS_15JSTokenLocationES5_jPNS_14SourceElementsEPN3WTF6VectorINSt3__14pairIPKNS_10IdentifierEjEELm0ENS8_15CrashOnOverflowEEEPNS9_IPNS_16FunctionBodyNodeELm0ESG_EERNS8_7HashSetINS8_6RefPtrINS8_10StringImplEEENS_17IdentifierRepHashENS8_10HashTraitsISQ_EEEERKNS_10SourceCodeEji
__ZN3JSC9ScopeNodeC2EPNS_2VMERKNS_15JSTokenLocationES5_RKNS_10SourceCodeEPNS_14SourceElementsEPN3WTF6VectorINSt3__14pairIPKNS_10IdentifierEjEELm0ENSB_15CrashOnOverflowEEEPNSC_IPNS_16FunctionBodyNodeELm0ESJ_EERNSB_7HashSetINSB_6RefPtrINSB_10StringImplEEENS_17IdentifierRepHashENSB_10HashTraitsIST_EEEEji
__ZN3JSC11ParserArena10removeLastEv
__ZN3JSC11ParserArena5resetEv
__ZN3JSC11ParserArena17deallocateObjectsEv
__ZN3JSC6ParserINS_5LexerIhEEED1Ev
__ZN3JSC6ParserINS_5LexerIhEEED2Ev
__ZN3JSC5LexerIhED1Ev
__ZN3JSC24UnlinkedProgramCodeBlock6createEPNS_2VMERKNS_14ExecutableInfoE
__ZN3JSC17UnlinkedCodeBlockC2EPNS_2VMEPNS_9StructureENS_8CodeTypeERKNS_14ExecutableInfoE
__ZN3JSC17BytecodeGeneratorC1ERNS_2VMEPNS_7JSScopeEPNS_11ProgramNodeEPNS_24UnlinkedProgramCodeBlockENS_12DebuggerModeENS_12ProfilerModeE
__ZN3JSC17BytecodeGeneratorC2ERNS_2VMEPNS_7JSScopeEPNS_11ProgramNodeEPNS_24UnlinkedProgramCodeBlockENS_12DebuggerModeENS_12ProfilerModeE
__ZN3WTF6VectorIN3JSC19UnlinkedInstructionELm0ENS_20UnsafeVectorOverflowEE15reserveCapacityEm
__ZN3JSC24UnlinkedProgramCodeBlock22addVariableDeclarationERKNS_10IdentifierEb
__ZN3WTF6VectorINSt3__14pairIN3JSC10IdentifierEbEELm0ENS_15CrashOnOverflowEE14expandCapacityEm
__ZN3JSC17BytecodeGenerator8generateEv
__ZN3JSC11ProgramNode12emitBytecodeERNS_17BytecodeGeneratorEPNS_10RegisterIDE
__ZN3JSC17BytecodeGenerator13emitDebugHookENS_11DebugHookIDEjjjj
__ZN3JSC17BytecodeGenerator12newTemporaryEv
__ZN3WTF15SegmentedVectorIN3JSC10RegisterIDELm32ELm32EE6appendImEEvRKT_
__ZN3WTF6VectorIPNS0_IN3JSC10RegisterIDELm32ENS_15CrashOnOverflowEEELm0ES3_E14expandCapacityEm
__ZN3JSC17BytecodeGenerator8emitLoadEPNS_10RegisterIDENS_7JSValueE
__ZN3JSC17BytecodeGenerator16addConstantValueENS_7JSValueE
__ZN3WTF9HashTableIxNS_12KeyValuePairIxjEENS_24KeyValuePairKeyExtractorIS2_EENS_7IntHashIxEENS_18HashMapValueTraitsIN3JSC24EncodedJSValueHashTraitsENS_10HashTraitsIjEEEES9_E16lookupForWritingINS_22IdentityHashTranslatorIS6_EExEENSt3__14pairIPS2_bEERKT0_
__ZN3WTF9HashTableIxNS_12KeyValuePairIxjEENS_24KeyValuePairKeyExtractorIS2_EENS_7IntHashIxEENS_18HashMapValueTraitsIN3JSC24EncodedJSValueHashTraitsENS_10HashTraitsIjEEEES9_E3addINS_17HashMapTranslatorISC_S6_EExjEENS_18HashTableAddResultINS_17HashTableIteratorIxS2_S4_S6_SC_S9_EEEERKT0_RKT1_
__ZN3WTF15SegmentedVectorIN3JSC10RegisterIDELm32ELm32EE6appendIiEEvRKT_
__ZN3JSC17UnlinkedCodeBlock11addConstantENS_7JSValueE
__ZN3WTF6VectorIN3JSC12WriteBarrierINS1_7UnknownEEELm0ENS_15CrashOnOverflowEE15reserveCapacityEm
__ZN3JSC17BytecodeGenerator8emitMoveEPNS_10RegisterIDES2_
__ZN3JSC22StaticPropertyAnalyzer3movEii
__ZN3JSC22StaticPropertyAnalyzer4killEi
__ZN3WTF7HashMapIiNS_6RefPtrIN3JSC22StaticPropertyAnalysisEEENS_7IntHashIiEENS_29UnsignedWithZeroKeyHashTraitsIiEENS_10HashTraitsIS4_EEE4findERKi
__ZN3JSC17ExprStatementNode12emitBytecodeERNS_17BytecodeGeneratorEPNS_10RegisterIDE
__ZN3JSC17AssignResolveNode12emitBytecodeERNS_17BytecodeGeneratorEPNS_10RegisterIDE
__ZN3JSC17BytecodeGenerator7resolveERKNS_10IdentifierE
__ZN3JSC17BytecodeGenerator21emitResolveBaseForPutEPNS_10RegisterIDERKNS_13ResolveResultERKNS_10IdentifierERNS_19NonlocalResolveInfoE
__ZN3JSC17BytecodeGenerator11addConstantERKNS_10IdentifierE
__ZN3WTF9HashTableINS_6RefPtrINS_10StringImplEEENS_12KeyValuePairIS3_iEENS_24KeyValuePairKeyExtractorIS5_EEN3JSC17IdentifierRepHashENS_22KeyValuePairHashTraitsINS_10HashTraitsIS3_EENS8_28IdentifierMapIndexHashTraitsEEESC_E3addINS_17HashMapTranslatorISE_S9_EEPS2_iEENS_18HashTableAddResultINS_17HashTableIteratorIS3_S5_S7_S9_SE_SC_EEEERKT0_RKT1_
__ZN3WTF9HashTableINS_6RefPtrINS_10StringImplEEENS_12KeyValuePairIS3_iEENS_24KeyValuePairKeyExtractorIS5_EEN3JSC17IdentifierRepHashENS_22KeyValuePairHashTraitsINS_10HashTraitsIS3_EENS8_28IdentifierMapIndexHashTraitsEEESC_E6rehashEi
__ZN3JSC17UnlinkedCodeBlock13addIdentifierERKNS_10IdentifierE
__ZN3WTF6VectorIN3JSC10IdentifierELm0ENS_15CrashOnOverflowEE14expandCapacityEm
__ZN3JSC17BytecodeGenerator24getResolveBaseOperationsERN3WTF7HashMapIPNS1_10StringImplENS0_17ResolveCacheEntryENS_17IdentifierRepHashENS1_10HashTraitsIS4_EENS7_IS5_EEEERKNS_10IdentifierERj
__ZN3WTF9HashTableIPNS_10StringImplENS_12KeyValuePairIS2_N3JSC17BytecodeGenerator17ResolveCacheEntryEEENS_24KeyValuePairKeyExtractorIS7_EENS4_17IdentifierRepHashENS_18HashMapValueTraitsINS_10HashTraitsIS2_EENSC_IS6_EEEESD_E3addINS_17HashMapTranslatorISF_SA_EES2_S6_EENS_18HashTableAddResultINS_17HashTableIteratorIS2_S7_S9_SA_SF_SD_EEEERKT0_RKT1_
__ZN3WTF9HashTableIPNS_10StringImplENS_12KeyValuePairIS2_N3JSC17BytecodeGenerator17ResolveCacheEntryEEENS_24KeyValuePairKeyExtractorIS7_EENS4_17IdentifierRepHashENS_18HashMapValueTraitsINS_10HashTraitsIS2_EENSC_IS6_EEEESD_E6rehashEi
__ZN3WTF9HashTableIPNS_10StringImplENS_12KeyValuePairIS2_jEENS_24KeyValuePairKeyExtractorIS4_EEN3JSC17IdentifierRepHashENS_18HashMapValueTraitsINS_10HashTraitsIS2_EENSA_IjEEEESB_E3addINS_17HashMapTranslatorISD_S8_EES2_jEENS_18HashTableAddResultINS_17HashTableIteratorIS2_S4_S6_S8_SD_SB_EEEERKT0_RKT1_
__ZN3WTF9HashTableIPNS_10StringImplENS_12KeyValuePairIS2_jEENS_24KeyValuePairKeyExtractorIS4_EEN3JSC17IdentifierRepHashENS_18HashMapValueTraitsINS_10HashTraitsIS2_EENSA_IjEEEESB_E6rehashEi
__ZN3JSC12FuncExprNode12emitBytecodeERNS_17BytecodeGeneratorEPNS_10RegisterIDE
__ZN3JSC17BytecodeGenerator25emitNewFunctionExpressionEPNS_10RegisterIDEPNS_12FuncExprNodeE
__ZN3JSC26UnlinkedFunctionExecutableC1EPNS_2VMEPNS_9StructureERKNS_10SourceCodeEPNS_16FunctionBodyNodeE
__ZN3JSC26UnlinkedFunctionExecutableC2EPNS_2VMEPNS_9StructureERKNS_10SourceCodeEPNS_16FunctionBodyNodeE
__ZN3JSC26UnlinkedFunctionExecutable14finishCreationERNS_2VME
__ZN3JSC17UnlinkedCodeBlock15addFunctionExprEPNS_26UnlinkedFunctionExecutableE
__ZN3WTF6VectorIN3JSC12WriteBarrierINS1_26UnlinkedFunctionExecutableEEELm0ENS_15CrashOnOverflowEE15reserveCapacityEm
__ZN3JSC17BytecodeGenerator27createActivationIfNecessaryEv
__ZN3JSC17UnlinkedCodeBlock17addExpressionInfoEjiiijj
__ZN3WTF6VectorIN3JSC19ExpressionRangeInfoELm0ENS_15CrashOnOverflowEE15reserveCapacityEm
__ZN3JSC17BytecodeGenerator13emitPutToBaseEPNS_10RegisterIDERKNS_10IdentifierES2_RNS_19NonlocalResolveInfoE
__ZN3JSC13AssignDotNode12emitBytecodeERNS_17BytecodeGeneratorEPNS_10RegisterIDE
__ZNK3JSC14ExpressionNode6isPureERNS_17BytecodeGeneratorE
__ZN3JSC11ResolveNode12emitBytecodeERNS_17BytecodeGeneratorEPNS_10RegisterIDE
__ZN3JSC17BytecodeGenerator11emitResolveEPNS_10RegisterIDERKNS_13ResolveResultERKNS_10IdentifierE
__ZN3JSC17ObjectLiteralNode12emitBytecodeERNS_17BytecodeGeneratorEPNS_10RegisterIDE
__ZN3JSC16PropertyListNode12emitBytecodeERNS_17BytecodeGeneratorEPNS_10RegisterIDE
__ZN3JSC17BytecodeGenerator13emitNewObjectEPNS_10RegisterIDE
__ZN3JSC22StaticPropertyAnalyzer9newObjectEij
__ZN3WTF9HashTableIiNS_12KeyValuePairIiNS_6RefPtrIN3JSC22StaticPropertyAnalysisEEEEENS_24KeyValuePairKeyExtractorIS6_EENS_7IntHashIiEENS_18HashMapValueTraitsINS_29UnsignedWithZeroKeyHashTraitsIiEENS_10HashTraitsIS5_EEEESD_E3addINS_17HashMapTranslatorISG_SA_EEiNS_10PassRefPtrIS4_EEEENS_18HashTableAddResultINS_17HashTableIteratorIiS6_S8_SA_SG_SD_EEEERKT0_RKT1_
__ZN3WTF9HashTableIiNS_12KeyValuePairIiNS_6RefPtrIN3JSC22StaticPropertyAnalysisEEEEENS_24KeyValuePairKeyExtractorIS6_EENS_7IntHashIiEENS_18HashMapValueTraitsINS_29UnsignedWithZeroKeyHashTraitsIiEENS_10HashTraitsIS5_EEEESD_E6rehashEi
__ZN3WTF9HashTableIiNS_12KeyValuePairIiNS_6RefPtrIN3JSC22StaticPropertyAnalysisEEEEENS_24KeyValuePairKeyExtractorIS6_EENS_7IntHashIiEENS_18HashMapValueTraitsINS_29UnsignedWithZeroKeyHashTraitsIiEENS_10HashTraitsIS5_EEEESD_E8reinsertERS6_
__ZN3JSC17BytecodeGenerator17emitDirectPutByIdEPNS_10RegisterIDERKNS_10IdentifierES2_
__ZN3WTF9HashTableIjjNS_17IdentityExtractorENS_7IntHashIjEENS_29UnsignedWithZeroKeyHashTraitsIjEES5_E3addINS_22IdentityHashTranslatorIS3_EEjjEENS_18HashTableAddResultINS_17HashTableIteratorIjjS1_S3_S5_S5_EEEERKT0_RKT1_
__ZN3JSC17UnlinkedCodeBlock28addPropertyAccessInstructionEj
__ZN3WTF6VectorIjLm0ENS_15CrashOnOverflowEE14expandCapacityEm
__ZN3JSC17BytecodeGenerator11emitPutByIdEPNS_10RegisterIDERKNS_10IdentifierES2_
__ZN3JSC16VarStatementNode12emitBytecodeERNS_17BytecodeGeneratorEPNS_10RegisterIDE
__ZN3JSC11NewExprNode12emitBytecodeERNS_17BytecodeGeneratorEPNS_10RegisterIDE
__ZN3JSC17BytecodeGenerator29expectedFunctionForIdentifierERKNS_10IdentifierE
__ZN3JSC13CallArgumentsC2ERNS_17BytecodeGeneratorEPNS_13ArgumentsNodeE
__ZN3JSC17BytecodeGenerator13emitConstructEPNS_10RegisterIDES2_NS_16ExpectedFunctionERNS_13CallArgumentsEjjjjj
__ZN3JSC17BytecodeGenerator8newLabelEv
__ZN3WTF15SegmentedVectorIN3JSC5LabelELm32ELm32EE6appendIPNS1_17BytecodeGeneratorEEEvRKT_
__ZN3WTF6VectorIPNS0_IN3JSC5LabelELm32ENS_15CrashOnOverflowEEELm0ES3_E14expandCapacityEm
__ZN3JSC17BytecodeGenerator27emitExpectedFunctionSnippetEPNS_10RegisterIDES2_NS_16ExpectedFunctionERNS_13CallArgumentsEPNS_5LabelE
__ZN3JSC17BytecodeGenerator16emitUnaryNoDstOpENS_8OpcodeIDEPNS_10RegisterIDE
__ZN3JSC22StaticPropertyAnalyzer4killEv
__ZN3JSC17UnlinkedCodeBlock11shrinkToFitEv
__ZN3WTF6VectorIjLm0ENS_15CrashOnOverflowEE14shrinkCapacityEm
__ZN3WTF6VectorIN3JSC10IdentifierELm0ENS_15CrashOnOverflowEE14shrinkCapacityEm
__ZN3WTF6VectorIN3JSC12WriteBarrierINS1_7UnknownEEELm0ENS_15CrashOnOverflowEE14shrinkCapacityEm
__ZN3WTF6VectorIN3JSC12WriteBarrierINS1_26UnlinkedFunctionExecutableEEELm0ENS_15CrashOnOverflowEE14shrinkCapacityEm
__ZN3WTF6VectorIN3JSC19ExpressionRangeInfoELm0ENS_15CrashOnOverflowEE14shrinkCapacityEm
__ZN3JSC9ScopeNode11destroyDataEv
__ZN3JSC15ParserArenaDataIN3WTF6VectorINSt3__14pairIPKNS_10IdentifierEjEELm0ENS1_15CrashOnOverflowEEEED1Ev
__ZN3JSC15ParserArenaDataIN3WTF6VectorIPNS_16FunctionBodyNodeELm0ENS1_15CrashOnOverflowEEEED1Ev
__ZN3JSC14SourceElementsD1Ev
__ZThn24_N3JSC16FunctionBodyNodeD0Ev
__ZN3JSC16FunctionBodyNodeD2Ev
__ZN3JSC9ScopeNodeD2Ev
__ZN3JSC11ParserArenaD1Ev
__ZN3JSC11ParserArenaD2Ev
__ZN3JSC17BytecodeGeneratorD1Ev
__ZN3JSC17BytecodeGeneratorD2Ev
__ZN3WTF15SegmentedVectorIN3JSC7TryDataELm8ELm32EED2Ev
__ZN3WTF15SegmentedVectorIN3JSC5LabelELm32ELm32EED2Ev
__ZN3WTF15SegmentedVectorIN3JSC10RegisterIDELm32ELm32EED2Ev
__ZThn24_N3JSC11ProgramNodeD0Ev
__ZNK3JSC8JSObject11hasPropertyEPNS_9ExecStateENS_12PropertyNameE
__ZN3JSC17ProgramExecutable12addGlobalVarEPNS_14JSGlobalObjectERKNS_10IdentifierENS0_12ConstantModeENS0_12FunctionModeE
__ZN3JSC17ProgramExecutable15compileInternalEPNS_9ExecStateEPNS_7JSScopeENS_7JITCode7JITTypeEj
__ZN3JSC9CodeBlockC2EPNS_16ScriptExecutableEPNS_17UnlinkedCodeBlockEPNS_14JSGlobalObjectEjN3WTF10PassRefPtrINS_14SourceProviderEEEjjNS7_10PassOwnPtrIS0_EE
__ZN3JSC3DFG11ExitProfileC1Ev
__ZN3JSC39CompressedLazyOperandValueProfileHolderC1Ev
__ZN3JSC16ExecutionCounterC1Ev
__ZN3JSC2VM16startedCompilingEPNS_9CodeBlockE
__ZN3WTF6VectorIPN3JSC9CodeBlockELm0ENS_15CrashOnOverflowEE14expandCapacityEm
__ZN3WTF6VectorIN3JSC12ValueProfileELm0ENS_15CrashOnOverflowEE15reserveCapacityEm
__ZN3WTF6VectorIN3JSC10IdentifierELm0ENS_15CrashOnOverflowEE6appendIS2_EEvPKT_m
__ZN3JSC9CodeBlock20setConstantRegistersERKN3WTF6VectorINS_12WriteBarrierINS_7UnknownEEELm0ENS1_15CrashOnOverflowEEE
__ZN3WTF6VectorIN3JSC12WriteBarrierINS1_18FunctionExecutableEEELm0ENS_15CrashOnOverflowEE15reserveCapacityEm
__ZN3JSC18FunctionExecutableC1ERNS_2VMERKNS_10SourceCodeEPNS_26UnlinkedFunctionExecutableEjjj
__ZN3WTF15SegmentedVectorIN3JSC17LLIntCallLinkInfoELm8ELm32EE13ensureSegmentEmm
__ZN3WTF6VectorIPNS0_IN3JSC17LLIntCallLinkInfoELm8ENS_15CrashOnOverflowEEELm0ES3_E14expandCapacityEm
__ZN3WTF15SegmentedVectorIN3JSC12ValueProfileELm8ELm32EE13ensureSegmentEmm
__ZN3WTF6VectorIPNS0_IN3JSC12ValueProfileELm8ENS_15CrashOnOverflowEEELm0ES3_E14expandCapacityEm
__ZN3WTF15SegmentedVectorIN3JSC23ObjectAllocationProfileELm8ELm32EE13ensureSegmentEmm
__ZN3WTF6VectorIPNS0_IN3JSC23ObjectAllocationProfileELm8ENS_15CrashOnOverflowEEELm0ES3_E14expandCapacityEm
__ZN3WTF6VectorINS0_IN3JSC16ResolveOperationELm0ENS_15CrashOnOverflowEEELm0ES3_E15reserveCapacityEm
__ZN3JSC12opcodeLengthENS_8OpcodeIDE
__ZN3JSC23ObjectAllocationProfile28possibleDefaultPropertyCountERNS_2VMEPNS_8JSObjectE
__ZN3JSC12PrototypeMap32emptyObjectStructureForPrototypeEPNS_8JSObjectEj
__ZN3JSC9WeakGCMapINSt3__14pairIPNS_8JSObjectEjEENS_9StructureEN3WTF8PairHashIS4_jEENS7_10HashTraitsIS5_EEE3addERKS5_NS_8PassWeakIS6_EE
__ZN3JSC16ExecutionCounter15setNewThresholdEiPNS_9CodeBlockE
__ZN3JSC16ExecutionCounter12setThresholdEPNS_9CodeBlockE
__ZN3JSC9CodeBlock24predictedMachineCodeSizeEv
__ZN3JSC19ExecutableAllocator24memoryPressureMultiplierEm
__ZN3JSC9CodeBlock32copyPostParseDataFromAlternativeEv
__ZN3JSC9CodeBlock21copyPostParseDataFromEPS0_
__ZN3JSC5LLInt20getProgramEntrypointERNS_2VMERNS_7JITCodeE
__ZN3JSC5LLInt26programEntryThunkGeneratorEPNS_2VME
__ZN3JSC5LLIntL23generateThunkWithJumpToEPNS_2VMEPFvvEPKc
__ZN3JSC9CodeBlock10setJITCodeERKNS_7JITCodeENS_21MacroAssemblerCodePtrE
__ZN3JSC4Heap29reportExtraMemoryCostSlowCaseEm
__ZN3JSC8Watchdog7didFireEPNS_9ExecStateE
__ZN3JSC7JSStack12growSlowCaseEPNS_8RegisterE
__ZN3JSC8Watchdog5ScopeC1ERS0_
_ctiTrampoline
__ZN3JSC9ExecState13setCurrentVPCEPNS_11InstructionE
__ZN3JSC7JSScope11resolveBaseEPNS_9ExecStateERKNS_10IdentifierEbPN3WTF6VectorINS_16ResolveOperationELm0ENS6_15CrashOnOverflowEEEPNS_18PutToBaseOperationE
__ZN3JSC7JSScope30resolveContainingScopeInternalILNS0_10LookupModeE0ELNS0_12ReturnValuesE2EEEPNS_8JSObjectEPNS_9ExecStateERKNS_10IdentifierERNS_12PropertySlotEPN3WTF6VectorINS_16ResolveOperationELm0ENSD_15CrashOnOverflowEEEPNS_18PutToBaseOperationEb
__ZN3WTF6VectorIN3JSC16ResolveOperationELm0ENS_15CrashOnOverflowEE15reserveCapacityEm
__ZN3WTF6VectorIN3JSC16ResolveOperationELm0ENS_15CrashOnOverflowEE14shrinkCapacityEm
__ZN3JSC7JSScope10resolvePutEPNS_9ExecStateENS_7JSValueERKNS_10IdentifierES3_PNS_18PutToBaseOperationE
__ZN3JSC7JSScope7resolveEPNS_9ExecStateERKNS_10IdentifierEPN3WTF6VectorINS_16ResolveOperationELm0ENS6_15CrashOnOverflowEEE
__ZN3JSC7JSScope30resolveContainingScopeInternalILNS0_10LookupModeE0ELNS0_12ReturnValuesE1EEEPNS_8JSObjectEPNS_9ExecStateERKNS_10IdentifierERNS_12PropertySlotEPN3WTF6VectorINS_16ResolveOperationELm0ENSD_15CrashOnOverflowEEEPNS_18PutToBaseOperationEb
__ZN3JSC10JSFunction3putEPNS_6JSCellEPNS_9ExecStateENS_12PropertyNameENS_7JSValueERNS_15PutPropertySlotE
__ZN3JSC10JSFunction18getOwnPropertySlotEPNS_6JSCellEPNS_9ExecStateENS_12PropertyNameERNS_12PropertySlotE
__ZN3JSC16SymbolTableEntry14couldBeWatchedEv
__ZN3JSCL24executeResolveOperationsEPNS_9ExecStateEPNS_7JSScopeERKNS_10IdentifierEPNS_16ResolveOperationERNS_12LookupResultE
__ZN3JSC5LLInt9setUpCallEPNS_9ExecStateEPNS_11InstructionENS_22CodeSpecializationKindENS_7JSValueEPNS_17LLIntCallLinkInfoE
__ZN3JSC18FunctionExecutable27compileForConstructInternalEPNS_9ExecStateEPNS_7JSScopeENS_7JITCode7JITTypeEj
__ZN3JSC18FunctionExecutable19produceCodeBlockForEPNS_7JSScopeENS_22CodeSpecializationKindERPNS_8JSObjectE
__ZN3JSC26UnlinkedFunctionExecutable12codeBlockForERNS_2VMEPNS_7JSScopeERKNS_10SourceCodeENS_22CodeSpecializationKindENS_12DebuggerModeENS_12ProfilerModeERNS_11ParserErrorE
__ZN3JSC5parseINS_16FunctionBodyNodeEEEN3WTF10PassRefPtrIT_EEPNS_2VMERKNS_10SourceCodeEPNS_18FunctionParametersERKNS_10IdentifierENS_18JSParserStrictnessENS_12JSParserModeERNS_11ParserErrorE
__ZN3JSC6ParserINS_5LexerIhEEE5parseINS_16FunctionBodyNodeEEEN3WTF10PassRefPtrIT_EERNS_11ParserErrorE
__ZN3JSC16FunctionBodyNode6createEPNS_2VMERKNS_15JSTokenLocationES5_jPNS_14SourceElementsEPN3WTF6VectorINSt3__14pairIPKNS_10IdentifierEjEELm0ENS8_15CrashOnOverflowEEEPNS9_IPS0_Lm0ESG_EERNS8_7HashSetINS8_6RefPtrINS8_10StringImplEEENS_17IdentifierRepHashENS8_10HashTraitsISP_EEEERKNS_10SourceCodeEji
__ZN3JSC25UnlinkedFunctionCodeBlock6createEPNS_2VMENS_8CodeTypeERKNS_14ExecutableInfoE
__ZN3JSC17BytecodeGeneratorC1ERNS_2VMEPNS_7JSScopeEPNS_16FunctionBodyNodeEPNS_25UnlinkedFunctionCodeBlockENS_12DebuggerModeENS_12ProfilerModeE
__ZN3JSC17BytecodeGeneratorC2ERNS_2VMEPNS_7JSScopeEPNS_16FunctionBodyNodeEPNS_25UnlinkedFunctionCodeBlockENS_12DebuggerModeENS_12ProfilerModeE
__ZN3JSC17BytecodeGenerator13resolveCalleeEPNS_16FunctionBodyNodeE
__ZN3WTF15SegmentedVectorIN3JSC10RegisterIDELm32ELm32EE13ensureSegmentEmm
__ZN3JSC17BytecodeGenerator14emitCreateThisEPNS_10RegisterIDE
__ZN3JSC16FunctionBodyNode12emitBytecodeERNS_17BytecodeGeneratorEPNS_10RegisterIDE
__ZN3JSC9BlockNode12emitBytecodeERNS_17BytecodeGeneratorEPNS_10RegisterIDE
__ZNK3JSC9ScopeNode15singleStatementEv
__ZNK3JSC9BlockNode7isBlockEv
__ZN3JSC17BytecodeGenerator10emitReturnEPNS_10RegisterIDE
__ZN3JSC5LLInt21getFunctionEntrypointERNS_2VMENS_22CodeSpecializationKindERNS_7JITCodeERNS_21MacroAssemblerCodePtrE
__ZN3WTF5MoverINS_12KeyValuePairIPFN3JSC21MacroAssemblerCodeRefEPNS2_2VMEES3_EELb1EE4moveERS8_SA_
__ZN3JSC5LLInt39functionForConstructEntryThunkGeneratorEPNS_2VME
__ZN3JSC5LLInt44functionForConstructArityCheckThunkGeneratorEPNS_2VME
__ZN3JSC10JSFunction23createAllocationProfileEPNS_9ExecStateEm
__ZNK3JSC8JSObject3getEPNS_9ExecStateENS_12PropertyNameE
__ZN3JSC9Structure29getPropertyNamesFromStructureERNS_2VMERNS_17PropertyNameArrayENS_15EnumerationModeE
__ZN3JSC17PropertyNameArray14addKnownUniqueEPN3WTF10StringImplE
__ZN3JSC17PropertyNameArrayD2Ev
__ZN3JSC8Watchdog5ScopeD1Ev
_JSContextGetGlobalObject
_JSStringCreateWithUTF8CString
__ZN3WTF7Unicode18convertUTF8ToUTF16EPPKcS2_PPtS4_Pbb
_JSObjectGetProperty
__ZNK14OpaqueJSString10identifierEPN3JSC2VME
_JSStringRelease
_JSValueIsUndefined
_JSValueToObject
__ZNK3JSC6JSCell8toObjectEPNS_9ExecStateEPNS_14JSGlobalObjectE
_JSValueMakeString
_JSValueMakeBoolean
_JSObjectIsFunction
__ZN3JSC10JSFunction11getCallDataEPNS_6JSCellERNS_8CallDataE
_JSObjectCallAsFunction
__ZN3JSC8JSObject12toThisObjectEPNS_6JSCellEPNS_9ExecStateE
__ZN3JSC4callEPNS_9ExecStateENS_7JSValueENS_8CallTypeERKNS_8CallDataES2_RKNS_7ArgListE
__ZN3JSC11Interpreter11executeCallEPNS_9ExecStateEPNS_8JSObjectENS_8CallTypeERKNS_8CallDataENS_7JSValueERKNS_7ArgListE
__ZN3JSC18FunctionExecutable22compileForCallInternalEPNS_9ExecStateEPNS_7JSScopeENS_7JITCode7JITTypeEj
__ZN3JSC6ParserINS_5LexerIhEEE16parseIfStatementINS_10ASTBuilderEEENT_9StatementERS6_
__ZN3JSC10ASTBuilder19operatorStackAppendERiii
__ZN3JSC10ASTBuilder21appendBinaryOperationERKNS_15JSTokenLocationERiS4_RKNSt3__14pairIPNS_14ExpressionNodeENS0_12BinaryOpInfoEEESC_
__ZN3JSC10ASTBuilder14makeBinaryNodeERKNS_15JSTokenLocationEiNSt3__14pairIPNS_14ExpressionNodeENS0_12BinaryOpInfoEEES9_
__ZN3JSC6ParserINS_5LexerIhEEE20parseReturnStatementINS_10ASTBuilderEEENT_9StatementERS6_
__ZN3JSC17BytecodeGenerator12addParameterERKNS_10IdentifierEi
__ZN3JSC17BytecodeGenerator11registerForEi
__ZN3JSC10IfElseNode12emitBytecodeERNS_17BytecodeGeneratorEPNS_10RegisterIDE
__ZN3JSC10IfElseNode23tryFoldBreakAndContinueERNS_17BytecodeGeneratorEPNS_13StatementNodeERPNS_5LabelERNS_15FallThroughModeE
__ZNK3JSC13StatementNode7isBlockEv
__ZNK3JSC13StatementNode7isBreakEv
__ZNK3JSC13StatementNode10isContinueEv
__ZN3JSC12BinaryOpNode30emitBytecodeInConditionContextERNS_17BytecodeGeneratorEPNS_5LabelES4_NS_15FallThroughModeE
__ZN3JSC12BinaryOpNode15tryFoldToBranchERNS_17BytecodeGeneratorERN3WTF8TriStateERPNS_14ExpressionNodeE
__ZNK3JSC14ExpressionNode10isConstantEv
__ZNK3JSC12ConstantNode10isConstantEv
__ZNK3JSC10StringNode7jsValueERNS_17BytecodeGeneratorE
__ZN3JSC17BytecodeGenerator17addStringConstantERKNS_10IdentifierE
__ZN3WTF9HashTableIPNS_10StringImplENS_12KeyValuePairIS2_PN3JSC8JSStringEEENS_24KeyValuePairKeyExtractorIS7_EENS4_17IdentifierRepHashENS_18HashMapValueTraitsINS_10HashTraitsIS2_EENSC_IS6_EEEESD_E3addINS_17HashMapTranslatorISF_SA_EES2_S6_EENS_18HashTableAddResultINS_17HashTableIteratorIS2_S7_S9_SA_SF_SD_EEEERKT0_RKT1_
__ZN3WTF9HashTableIPNS_10StringImplENS_12KeyValuePairIS2_PN3JSC8JSStringEEENS_24KeyValuePairKeyExtractorIS7_EENS4_17IdentifierRepHashENS_18HashMapValueTraitsINS_10HashTraitsIS2_EENSC_IS6_EEEESD_E6rehashEi
__ZN3JSC15StrictEqualNode12emitBytecodeERNS_17BytecodeGeneratorEPNS_10RegisterIDE
__ZNK3JSC14ExpressionNode8isStringEv
__ZNK3JSC12ConstantNode6isPureERNS_17BytecodeGeneratorE
__ZN3JSC17BytecodeGenerator29createLazyRegisterIfNecessaryEPNS_10RegisterIDE
__ZN3JSC12ConstantNode12emitBytecodeERNS_17BytecodeGeneratorEPNS_10RegisterIDE
__ZN3JSC17BytecodeGenerator14emitEqualityOpENS_8OpcodeIDEPNS_10RegisterIDES3_S3_
__ZN3JSC17BytecodeGenerator15emitJumpIfFalseEPNS_10RegisterIDEPNS_5LabelE
__ZNK3JSC5Label4bindEii
__ZN3JSC17BytecodeGenerator9emitLabelEPNS_5LabelE
__ZN3JSC17UnlinkedCodeBlock13addJumpTargetEj
__ZN3JSC10ReturnNode12emitBytecodeERNS_17BytecodeGeneratorEPNS_10RegisterIDE
__ZN3JSC9ArrayNode12emitBytecodeERNS_17BytecodeGeneratorEPNS_10RegisterIDE
__ZN3JSC17BytecodeGenerator12emitNewArrayEPNS_10RegisterIDEPNS_11ElementNodeEj
__ZN3JSC17UnlinkedCodeBlock17addConstantBufferEj
__ZN3WTF6VectorINS0_IN3JSC7JSValueELm0ENS_15CrashOnOverflowEEELm0ES3_E14appendSlowCaseIS4_EEvRKT_
__ZN3WTF6VectorINS0_IN3JSC7JSValueELm0ENS_15CrashOnOverflowEEELm0ES3_E15reserveCapacityEm
__ZN3WTF20VectorTypeOperationsINS_6VectorIN3JSC7JSValueELm0ENS_15CrashOnOverflowEEEE4moveEPKS5_S8_PS5_
__ZNK3JSC10ReturnNode12isReturnNodeEv
__ZNK3JSC14SourceElements15singleStatementEv
__ZN3WTF6VectorIN3JSC19UnlinkedHandlerInfoELm0ENS_15CrashOnOverflowEE14shrinkCapacityEm
__ZN3WTF6VectorIN3JSC12WriteBarrierINS1_6RegExpEEELm0ENS_15CrashOnOverflowEE14shrinkCapacityEm
__ZN3WTF6VectorINS0_IN3JSC7JSValueELm0ENS_15CrashOnOverflowEEELm0ES3_E14shrinkCapacityEm
__ZN3WTF6VectorIN3JSC23UnlinkedSimpleJumpTableELm0ENS_15CrashOnOverflowEE14shrinkCapacityEm
__ZN3WTF6VectorIN3JSC23UnlinkedStringJumpTableELm0ENS_15CrashOnOverflowEE14shrinkCapacityEm
__ZN3WTF6VectorIN3JSC19ExpressionRangeInfo11FatPositionELm0ENS_15CrashOnOverflowEE14shrinkCapacityEm
__ZN3WTF6VectorIN3JSC7JSValueELm0ENS_15CrashOnOverflowEEaSERKS4_
__ZN3WTF6VectorIN3JSC7JSValueELm0ENS_15CrashOnOverflowEE15reserveCapacityEm
__ZN3WTF15SegmentedVectorIN3JSC22ArrayAllocationProfileELm8ELm32EE13ensureSegmentEmm
__ZN3WTF6VectorIPNS0_IN3JSC22ArrayAllocationProfileELm8ENS_15CrashOnOverflowEEELm0ES3_E14expandCapacityEm
__ZN3JSC5LLInt34functionForCallEntryThunkGeneratorEPNS_2VME
__ZN3JSC5LLInt39functionForCallArityCheckThunkGeneratorEPNS_2VME
__ZN3JSC7JSStack9pushFrameEPNS_9ExecStateEPNS_9CodeBlockEPNS_7JSScopeEiPNS_8JSObjectE
__ZN3JSC7JSValue11strictEqualEPNS_9ExecStateES0_S0_
__ZN3JSC14constructArrayEPNS_9ExecStateEPNS_22ArrayAllocationProfileEPNS_14JSGlobalObjectEPKNS_7JSValueEj
__ZN3JSC7JSArray22tryCreateUninitializedERNS_2VMEPNS_9StructureEj
__ZN3JSC8JSObject15initializeIndexERNS_2VMEjNS_7JSValueE
__ZN3JSC8JSObject26setIndexQuicklyToUndecidedERNS_2VMEjNS_7JSValueE
__ZN3JSC9Structure21nonPropertyTransitionERNS_2VMEPS0_NS_21NonPropertyTransitionE
__ZN3JSC8JSObject15setIndexQuicklyERNS_2VMEjNS_7JSValueE
_JSValueIsNull
_JSValueIsBoolean
_JSValueIsNumber
_JSValueIsString
_JSValueIsInstanceOfConstructor
__ZN3JSC8JSObject11hasInstanceEPNS_9ExecStateENS_7JSValueE
__ZN3JSC16ArrayConstructor18getOwnPropertySlotEPNS_6JSCellEPNS_9ExecStateENS_12PropertyNameERNS_12PropertySlotE
__ZN3JSC21getStaticFunctionSlotINS_16InternalFunctionEEEbPNS_9ExecStateEPKNS_9HashTableEPNS_8JSObjectENS_12PropertyNameERNS_12PropertySlotE
__ZN3JSC8JSObject18defaultHasInstanceEPNS_9ExecStateENS_7JSValueES3_
__ZN3JSC6JSCell9getObjectEv
__ZN3JSC7JSArray18getOwnPropertySlotEPNS_6JSCellEPNS_9ExecStateENS_12PropertyNameERNS_12PropertySlotE
_JSValueToNumber
_JSObjectGetPropertyAtIndex
__ZNK3JSC8JSObject3getEPNS_9ExecStateEj
__ZN3JSC8JSObject25getOwnPropertySlotByIndexEPNS_6JSCellEPNS_9ExecStateEjRNS_12PropertySlotE
_JSValueToStringCopy
__ZN14OpaqueJSString6createERKN3WTF6StringE
_JSStringCopyCFString
_JSGlobalContextRelease
__ZN3JSC4Heap9unprotectENS_7JSValueE
__ZN3WTF7HashMapIPN3JSC6JSCellEjNS_7PtrHashIS3_EENS_10HashTraitsIS3_EENS6_IjEEE6removeENS_24HashTableIteratorAdapterINS_9HashTableIS3_NS_12KeyValuePairIS3_jEENS_24KeyValuePairKeyExtractorISD_EES5_NS_18HashMapValueTraitsIS7_S8_EES7_EESD_EE
__ZN3WTF21PageAllocationAligned10deallocateEv
-[JSWTFMainThreadCaller call]
__ZN3WTF31dispatchFunctionsFromMainThreadEv
__ZN3WTF7Unicode18convertUTF16ToUTF8EPPKtS2_PPcS4_b
__ZN3WTF25TCMalloc_Central_FreeList11ShrinkCacheEib
__ZN3WTF25TCMalloc_Central_FreeList18ReleaseListToSpansENS_11HardenedSLLE
__ZN3JSC11CopiedSpace21recycleEvacuatedBlockEPNS_11CopiedBlockE
__ZN3WTF7HashSetIPN3JSC11CopiedBlockENS_7PtrHashIS3_EENS_10HashTraitsIS3_EEE6removeERKS3_
__ZN3WTF7HashSetIPN3JSC11CopiedBlockENS_7PtrHashIS3_EENS_10HashTraitsIS3_EEE6removeENS_29HashTableConstIteratorAdapterINS_9HashTableIS3_S3_NS_17IdentityExtractorES5_S7_S7_EES3_EE
__ZN3WTF13StringBuilder6appendEPKtj
__ZN3JSC24UnlinkedProgramCodeBlock13visitChildrenEPNS_6JSCellERNS_11SlotVisitorE
__ZN3JSC17UnlinkedCodeBlock13visitChildrenEPNS_6JSCellERNS_11SlotVisitorE
__ZN3JSC26UnlinkedFunctionExecutable13visitChildrenEPNS_6JSCellERNS_11SlotVisitorE
__ZN3JSC15WeakHandleOwner26isReachableFromOpaqueRootsENS_6HandleINS_7UnknownEEEPvRNS_11SlotVisitorE
__ZN3JSC17ProgramExecutable9clearCodeEv
__ZN3JSC16ProgramCodeBlockD0Ev
__ZN3JSC9CodeBlockD2Ev
__ZN3WTF7HashSetIPN3JSC9CodeBlockENS_7PtrHashIS3_EENS_10HashTraitsIS3_EEE6removeENS_29HashTableConstIteratorAdapterINS_9HashTableIS3_S3_NS_17IdentityExtractorES5_S7_S7_EES3_EE
__ZN3WTF15SegmentedVectorIN3JSC23ObjectAllocationProfileELm8ELm32EED2Ev
__ZN3WTF15SegmentedVectorIN3JSC12ArrayProfileELm4ELm0EED2Ev
__ZN3WTF15SegmentedVectorIN3JSC22ArrayAllocationProfileELm8ELm32EED2Ev
__ZN3WTF15SegmentedVectorIN3JSC15RareCaseProfileELm8ELm32EED2Ev
__ZN3WTF15SegmentedVectorIN3JSC12ValueProfileELm8ELm32EED2Ev
__ZN3JSC39CompressedLazyOperandValueProfileHolderD1Ev
__ZN3JSC3DFG11ExitProfileD1Ev
__ZN3WTF15SegmentedVectorIN3JSC17LLIntCallLinkInfoELm8ELm32EE17deleteAllSegmentsEv
__ZN3JSC18FunctionExecutable9clearCodeEv
__ZN3JSC17FunctionCodeBlockD0Ev
__ZN3JSC9CodeBlock8RareDataD2Ev
__ZN3WTF6VectorIN3JSC15SimpleJumpTableELm0ENS_15CrashOnOverflowEED1Ev
__ZN3JSC19SourceProviderCacheD1Ev
__ZN3JSC19SourceProviderCacheD2Ev
__ZN3JSC19SourceProviderCache5clearEv
__ZN3JSC14SourceProviderD2Ev
_JSContextGetGroup
_JSContextGetGlobalContext
_JSWeakObjectMapCreate
__ZN3JSC14JSGlobalObject15registerWeakMapEP21OpaqueJSWeakObjectMap
__ZN3WTF9HashTableINS_6RefPtrI21OpaqueJSWeakObjectMapEES3_NS_17IdentityExtractorENS_7PtrHashIS3_EENS_10HashTraitsIS3_EES8_E3addINS_22IdentityHashTranslatorIS6_EES3_S3_EENS_18HashTableAddResultINS_17HashTableIteratorIS3_S3_S4_S6_S8_S8_EEEERKT0_RKT1_
__ZN3WTF9HashTableINS_6RefPtrI21OpaqueJSWeakObjectMapEES3_NS_17IdentityExtractorENS_7PtrHashIS3_EENS_10HashTraitsIS3_EES8_E15deallocateTableEPS3_i
__ZN3WTF6RefPtrI21OpaqueJSWeakObjectMapEaSERKS2_
_JSWeakObjectMapGet
_JSClassCreate
__ZN13OpaqueJSClass6createEPK17JSClassDefinition
__ZN13OpaqueJSClassC2EPK17JSClassDefinitionPS_
__ZN3WTF6OwnPtrINS_7HashMapINS_6RefPtrINS_10StringImplEEENS0_I16StaticValueEntryEENS_10StringHashENS_10HashTraitsIS4_EENS8_IS6_EEEEED2Ev
__ZN3WTF6OwnPtrINS_7HashMapINS_6RefPtrINS_10StringImplEEENS0_I16StaticValueEntryEENS_10StringHashENS_10HashTraitsIS4_EENS8_IS6_EEEEEaSERKNS_10PassOwnPtrISB_EE
__ZN3WTF10PassOwnPtrINS_7HashMapINS_6RefPtrINS_10StringImplEEENS_6OwnPtrI16StaticValueEntryEENS_10StringHashENS_10HashTraitsIS4_EENS9_IS7_EEEEED2Ev
_JSClassRetain
_JSObjectMake
__ZN3JSC16JSCallbackObjectINS_20JSDestructibleObjectEE6createEPNS_9ExecStateEPNS_14JSGlobalObjectEPNS_9StructureEP13OpaqueJSClassPv
__ZN3JSC16JSCallbackObjectINS_20JSDestructibleObjectEE4initEPNS_9ExecStateE
__ZN3JSC6JSLock12DropAllLocksC1EPNS_9ExecStateE
__ZN3JSC6JSLock12DropAllLocksC2EPNS_9ExecStateE
_JSObjectGetPrivate
__ZN3JSC6JSLock12DropAllLocksD1Ev
__ZN13OpaqueJSClass9prototypeEPN3JSC9ExecStateE
__ZN13OpaqueJSClass11contextDataEPN3JSC9ExecStateE
__ZN3WTF9HashTableIP13OpaqueJSClassNS_12KeyValuePairIS2_NS_6OwnPtrI24OpaqueJSClassContextDataEEEENS_24KeyValuePairKeyExtractorIS7_EENS_7PtrHashIS2_EENS_18HashMapValueTraitsINS_10HashTraitsIS2_EENSD_IS6_EEEESE_E16lookupForWritingINS_22IdentityHashTranslatorISB_EES2_EENSt3__14pairIPS7_bEERKT0_
__ZN3WTF9HashTableIP13OpaqueJSClassNS_12KeyValuePairIS2_NS_6OwnPtrI24OpaqueJSClassContextDataEEEENS_24KeyValuePairKeyExtractorIS7_EENS_7PtrHashIS2_EENS_18HashMapValueTraitsINS_10HashTraitsIS2_EENSD_IS6_EEEESE_E3addINS_17HashMapTranslatorISG_SB_EES2_NS_10PassOwnPtrIS5_EEEENS_18HashTableAddResultINS_17HashTableIteratorIS2_S7_S9_SB_SG_SE_EEEERKT0_RKT1_
__ZN3WTF9HashTableIP13OpaqueJSClassNS_12KeyValuePairIS2_NS_6OwnPtrI24OpaqueJSClassContextDataEEEENS_24KeyValuePairKeyExtractorIS7_EENS_7PtrHashIS2_EENS_18HashMapValueTraitsINS_10HashTraitsIS2_EENSD_IS6_EEEESE_E6rehashEi
__ZN24OpaqueJSClassContextDataC2ERN3JSC2VMEP13OpaqueJSClass
_JSWeakObjectMapSet
__ZN3WTF9HashTableIPvNS_12KeyValuePairIS1_N3JSC4WeakINS3_8JSObjectEEEEENS_24KeyValuePairKeyExtractorIS7_EENS_7PtrHashIS1_EENS_18HashMapValueTraitsINS_10HashTraitsIS1_EENSD_IS6_EEEESE_E16lookupForWritingINS_22IdentityHashTranslatorISB_EES1_EENSt3__14pairIPS7_bEERKT0_
__ZN3WTF9HashTableIPvNS_12KeyValuePairIS1_N3JSC4WeakINS3_8JSObjectEEEEENS_24KeyValuePairKeyExtractorIS7_EENS_7PtrHashIS1_EENS_18HashMapValueTraitsINS_10HashTraitsIS1_EENSD_IS6_EEEESE_E3addINS_17HashMapTranslatorISG_SB_EES1_NS3_8PassWeakIS5_EEEENS_18HashTableAddResultINS_17HashTableIteratorIS1_S7_S9_SB_SG_SE_EEEERKT0_RKT1_
__ZN3WTF9HashTableIPvNS_12KeyValuePairIS1_N3JSC4WeakINS3_8JSObjectEEEEENS_24KeyValuePairKeyExtractorIS7_EENS_7PtrHashIS1_EENS_18HashMapValueTraitsINS_10HashTraitsIS1_EENSD_IS6_EEEESE_E6rehashEi
_JSObjectSetProperty
__ZN3JSC16JSCallbackObjectINS_20JSDestructibleObjectEE18getOwnPropertySlotEPNS_6JSCellEPNS_9ExecStateENS_12PropertyNameERNS_12PropertySlotE
__ZN13OpaqueJSClass12staticValuesEPN3JSC9ExecStateE
__ZN3WTF9HashTableINS_6RefPtrINS_10StringImplEEENS_12KeyValuePairIS3_NS_6OwnPtrI16StaticValueEntryEEEENS_24KeyValuePairKeyExtractorIS8_EENS_10StringHashENS_22KeyValuePairHashTraitsINS_10HashTraitsIS3_EENSD_IS7_EEEESE_E3addINS_17HashMapTranslatorISG_SB_EEPS2_NS_10PassOwnPtrIS6_EEEENS_18HashTableAddResultINS_17HashTableIteratorIS3_S8_SA_SB_SG_SE_EEEERKT0_RKT1_
__ZN3WTF9HashTableINS_6RefPtrINS_10StringImplEEENS_12KeyValuePairIS3_NS_6OwnPtrI16StaticValueEntryEEEENS_24KeyValuePairKeyExtractorIS8_EENS_10StringHashENS_22KeyValuePairHashTraitsINS_10HashTraitsIS3_EENSD_IS7_EEEESE_E3addINS_17HashMapTranslatorISG_SB_EES3_NS_10PassOwnPtrIS6_EEEENS_18HashTableAddResultINS_17HashTableIteratorIS3_S8_SA_SB_SG_SE_EEEERKT0_RKT1_
__ZN3WTF9HashTableINS_6RefPtrINS_10StringImplEEENS_12KeyValuePairIS3_NS_6OwnPtrI16StaticValueEntryEEEENS_24KeyValuePairKeyExtractorIS8_EENS_10StringHashENS_22KeyValuePairHashTraitsINS_10HashTraitsIS3_EENSD_IS7_EEEESE_E6lookupINS_17HashMapTranslatorISG_SB_EEPS2_EEPS8_RKT0_
__ZN3WTF9HashTableINS_6RefPtrINS_10StringImplEEENS_12KeyValuePairIS3_NS_6OwnPtrI16StaticValueEntryEEEENS_24KeyValuePairKeyExtractorIS8_EENS_10StringHashENS_22KeyValuePairHashTraitsINS_10HashTraitsIS3_EENSD_IS7_EEEESE_E6rehashEi
__ZN3WTF9HashTableINS_6RefPtrINS_10StringImplEEENS_12KeyValuePairIS3_NS_6OwnPtrI16StaticValueEntryEEEENS_24KeyValuePairKeyExtractorIS8_EENS_10StringHashENS_22KeyValuePairHashTraitsINS_10HashTraitsIS3_EENSD_IS7_EEEESE_E8reinsertERS8_
__ZN13OpaqueJSClass15staticFunctionsEPN3JSC9ExecStateE
__ZN3JSC8JSObject16putDirectVirtualEPS0_PNS_9ExecStateENS_12PropertyNameENS_7JSValueEj
__ZN3JSC7JSProxy16putDirectVirtualEPNS_8JSObjectEPNS_9ExecStateENS_12PropertyNameENS_7JSValueEj
__ZN3JSC6ParserINS_5LexerIhEEE24parseExpressionStatementINS_10ASTBuilderEEENT_9StatementERS6_
__ZN3JSC10Identifier11addSlowCaseEPNS_2VMEPN3WTF10StringImplE
__ZN3JSC6ParserINS_5LexerIhEEE24parseFunctionDeclarationINS_13SyntaxCheckerEEENT_9StatementERS6_
__ZN3JSC6ParserINS_5LexerIhEEE17parseFunctionInfoILNS_20FunctionRequirementsE1ELb1ENS_13SyntaxCheckerEEEbRT1_RPKNS_10IdentifierERNS7_19FormalParameterListERNS7_12FunctionBodyERjSH_RiSH_
__ZN3WTF6VectorINS_6RefPtrINS_10StringImplEEELm0ENS_15CrashOnOverflowEE14expandCapacityEm
__ZN3JSC6ParserINS_5LexerIhEEE19parseVarDeclarationINS_13SyntaxCheckerEEENT_9StatementERS6_
__ZN3JSC6ParserINS_5LexerIhEEE31parseExpressionOrLabelStatementINS_13SyntaxCheckerEEENT_9StatementERS6_
__ZN3JSC6ParserINS_5LexerIhEEE17parseFunctionInfoILNS_20FunctionRequirementsE0ELb0ENS_13SyntaxCheckerEEEbRT1_RPKNS_10IdentifierERNS7_19FormalParameterListERNS7_12FunctionBodyERjSH_RiSH_
__ZN3JSC6ParserINS_5LexerIhEEE17parseTryStatementINS_13SyntaxCheckerEEENT_9StatementERS6_
__ZN3JSC6ParserINS_5LexerIhEEE17parseForStatementINS_13SyntaxCheckerEEENT_9StatementERS6_
__ZN3JSC6ParserINS_5LexerIhEEE24parseExpressionStatementINS_13SyntaxCheckerEEENT_9StatementERS6_
__ZN3JSC6ParserINS_5LexerIhEEE19parseBreakStatementINS_13SyntaxCheckerEEENT_9StatementERS6_
__ZN3WTF6VectorIN3JSC15JSTokenLocationELm0ENS_15CrashOnOverflowEE15reserveCapacityEm
__ZN3WTF6VectorIiLm0ENS_15CrashOnOverflowEE14expandCapacityEm
__ZN3WTF6VectorINSt3__14pairIiiEELm0ENS_15CrashOnOverflowEE14expandCapacityEm
__ZN3JSC6ParserINS_5LexerIhEEE19parseWhileStatementINS_13SyntaxCheckerEEENT_9StatementERS6_
__ZN3JSC5LexerIhE10scanRegExpERPKNS_10IdentifierES5_t
__ZN3JSC10Identifier20createLCharFromUCharEPNS_2VMEPKti
__ZN3JSC10Identifier4add8EPNS_2VMEPKti
__ZN3WTF9HashTableIPNS_10StringImplES2_NS_17IdentityExtractorENS_10StringHashENS_10HashTraitsIS2_EES6_E18addPassingHashCodeINS_24HashSetTranslatorAdapterIN3JSC30IdentifierCharBufferTranslatorIhEEEENSA_10CharBufferIhEESF_EENS_18HashTableAddResultINS_17HashTableIteratorIS2_S2_S3_S4_S6_S6_EEEERKT0_RKT1_
__ZN3WTF9HashTableIPNS_10StringImplES2_NS_17IdentityExtractorENS_10StringHashENS_10HashTraitsIS2_EES6_E18addPassingHashCodeINS_24HashSetTranslatorAdapterIN3JSC30IdentifierCharBufferTranslatorItEEEENSA_10CharBufferItEESF_EENS_18HashTableAddResultINS_17HashTableIteratorIS2_S2_S3_S4_S6_S6_EEEERKT0_RKT1_
__ZN3WTF9HashTableIPNS_10StringImplES2_NS_17IdentityExtractorENS_10StringHashENS_10HashTraitsIS2_EES6_E18addPassingHashCodeINS_24HashSetTranslatorAdapterIN3JSC31IdentifierASCIIStringTranslatorEEEPKhSE_EENS_18HashTableAddResultINS_17HashTableIteratorIS2_S2_S3_S4_S6_S6_EEEERKT0_RKT1_
__ZN3WTF9HashTableIPNS_10StringImplES2_NS_17IdentityExtractorENS_10StringHashENS_10HashTraitsIS2_EES6_E18addPassingHashCodeINS_24HashSetTranslatorAdapterIN3JSC34IdentifierLCharFromUCharTranslatorEEENSA_10CharBufferItEESE_EENS_18HashTableAddResultINS_17HashTableIteratorIS2_S2_S3_S4_S6_S6_EEEERKT0_RKT1_
__ZN3WTF9HashTableIPNS_10StringImplES2_NS_17IdentityExtractorENS_10StringHashENS_10HashTraitsIS2_EES6_E18addPassingHashCodeINS_24HashSetTranslatorAdapterINS_17CStringTranslatorEEEPKhSD_EENS_18HashTableAddResultINS_17HashTableIteratorIS2_S2_S3_S4_S6_S6_EEEERKT0_RKT1_
__ZN3WTF9HashTableIPNS_10StringImplES2_NS_17IdentityExtractorENS_10StringHashENS_10HashTraitsIS2_EES6_E18addPassingHashCodeINS_24HashSetTranslatorAdapterINS_19SubstringTranslatorEEENS_17SubstringLocationESC_EENS_18HashTableAddResultINS_17HashTableIteratorIS2_S2_S3_S4_S6_S6_EEEERKT0_RKT1_
__ZN3WTF9HashTableIPNS_10StringImplES2_NS_17IdentityExtractorENS_10StringHashENS_10HashTraitsIS2_EES6_E18addPassingHashCodeINS_24HashSetTranslatorAdapterINS_21LCharBufferTranslatorEEENS_24HashTranslatorCharBufferIhEESD_EENS_18HashTableAddResultINS_17HashTableIteratorIS2_S2_S3_S4_S6_S6_EEEERKT0_RKT1_
__ZN3WTF9HashTableIPNS_10StringImplES2_NS_17IdentityExtractorENS_10StringHashENS_10HashTraitsIS2_EES6_E18addPassingHashCodeINS_24HashSetTranslatorAdapterINS_21UCharBufferTranslatorEEENS_24HashTranslatorCharBufferItEESD_EENS_18HashTableAddResultINS_17HashTableIteratorIS2_S2_S3_S4_S6_S6_EEEERKT0_RKT1_
__ZN3WTF9HashTableIPNS_10StringImplES2_NS_17IdentityExtractorENS_10StringHashENS_10HashTraitsIS2_EES6_E18addPassingHashCodeINS_24HashSetTranslatorAdapterINS_27HashAndCharactersTranslatorItEEEENS_17HashAndCharactersItEESE_EENS_18HashTableAddResultINS_17HashTableIteratorIS2_S2_S3_S4_S6_S6_EEEERKT0_RKT1_
__ZN3WTF9HashTableIPNS_10StringImplES2_NS_17IdentityExtractorENS_10StringHashENS_10HashTraitsIS2_EES6_E18addPassingHashCodeINS_24HashSetTranslatorAdapterINS_31HashAndUTF8CharactersTranslatorEEENS_21HashAndUTF8CharactersESC_EENS_18HashTableAddResultINS_17HashTableIteratorIS2_S2_S3_S4_S6_S6_EEEERKT0_RKT1_
__ZN3WTF9HashTableIPNS_10StringImplES2_NS_17IdentityExtractorENS_10StringHashENS_10HashTraitsIS2_EES6_E18addPassingHashCodeINS_24HashSetTranslatorAdapterINS_35CharBufferFromLiteralDataTranslatorEEENS_24HashTranslatorCharBufferIcEESD_EENS_18HashTableAddResultINS_17HashTableIteratorIS2_S2_S3_S4_S6_S6_EEEERKT0_RKT1_
__ZN3WTF9HashTableIPNS_10StringImplES2_NS_17IdentityExtractorENS_10StringHashENS_10HashTraitsIS2_EES6_E20fullLookupForWritingINS_24HashSetTranslatorAdapterIN3JSC30IdentifierCharBufferTranslatorIhEEEENSA_10CharBufferIhEEEENSt3__14pairINSH_IPS2_bEEjEERKT0_
__ZN3WTF9HashTableIPNS_10StringImplES2_NS_17IdentityExtractorENS_10StringHashENS_10HashTraitsIS2_EES6_E20fullLookupForWritingINS_24HashSetTranslatorAdapterIN3JSC30IdentifierCharBufferTranslatorItEEEENSA_10CharBufferItEEEENSt3__14pairINSH_IPS2_bEEjEERKT0_
__ZN3WTF9HashTableIPNS_10StringImplES2_NS_17IdentityExtractorENS_10StringHashENS_10HashTraitsIS2_EES6_E20fullLookupForWritingINS_24HashSetTranslatorAdapterIN3JSC31IdentifierASCIIStringTranslatorEEEPKhEENSt3__14pairINSG_IPS2_bEEjEERKT0_
__ZN3WTF9HashTableIPNS_10StringImplES2_NS_17IdentityExtractorENS_10StringHashENS_10HashTraitsIS2_EES6_E20fullLookupForWritingINS_24HashSetTranslatorAdapterIN3JSC34IdentifierLCharFromUCharTranslatorEEENSA_10CharBufferItEEEENSt3__14pairINSG_IPS2_bEEjEERKT0_
__ZN3WTF9HashTableIPNS_10StringImplES2_NS_17IdentityExtractorENS_10StringHashENS_10HashTraitsIS2_EES6_E20fullLookupForWritingINS_24HashSetTranslatorAdapterINS_17CStringTranslatorEEEPKhEENSt3__14pairINSF_IPS2_bEEjEERKT0_
__ZN3WTF9HashTableIPNS_10StringImplES2_NS_17IdentityExtractorENS_10StringHashENS_10HashTraitsIS2_EES6_E20fullLookupForWritingINS_24HashSetTranslatorAdapterINS_19SubstringTranslatorEEENS_17SubstringLocationEEENSt3__14pairINSE_IPS2_bEEjEERKT0_
__ZN3JSC34IdentifierLCharFromUCharTranslator9translateERPN3WTF10StringImplERKNS_10CharBufferItEEj
__ZN3JSC4Yarr11checkSyntaxERKN3WTF6StringE
__ZN3JSC4Yarr5parseINS0_13SyntaxCheckerEEEPKcRT_RKN3WTF6StringEj
__ZN3JSC4Yarr6ParserINS0_13SyntaxCheckerEhE11parseTokensEv
__ZN3JSC4Yarr6ParserINS0_13SyntaxCheckerEhE11parseEscapeILb0ES2_EEbRT0_
__ZN3JSC6ParserINS_5LexerIhEEE22parseContinueStatementINS_13SyntaxCheckerEEENT_9StatementERS6_
__ZN3JSC4Yarr6ParserINS0_13SyntaxCheckerEhE19parseCharacterClassEv
__ZN3JSC4Yarr6ParserINS0_13SyntaxCheckerEhE11parseEscapeILb1ENS3_28CharacterClassParserDelegateEEEbRT0_
__ZN3JSC6ParserINS_5LexerIhEEE19parseThrowStatementINS_13SyntaxCheckerEEENT_9StatementERS6_
__ZN3WTF6VectorIhLm0ENS_15CrashOnOverflowEE14expandCapacityEm
__ZN3JSC6ParserINS_5LexerIhEEE21parseDoWhileStatementINS_13SyntaxCheckerEEENT_9StatementERS6_
__ZN3JSC6ParserINS_5LexerIhEEE20parseSwitchStatementINS_13SyntaxCheckerEEENT_9StatementERS6_
__ZN3JSC6ParserINS_5LexerIhEEE18parseSwitchClausesINS_13SyntaxCheckerEEENT_10ClauseListERS6_
__ZN3JSC6ParserINS_5LexerIhEEE24parseSwitchDefaultClauseINS_13SyntaxCheckerEEENT_6ClauseERS6_
__ZN3JSC10Identifier3addItEEN3WTF10PassRefPtrINS2_10StringImplEEEPNS_2VMEPKT_i
__ZN3JSC10ASTBuilder20makeFunctionCallNodeERKNS_15JSTokenLocationEPNS_14ExpressionNodeEPNS_13ArgumentsNodeEijijj
__ZNK3JSC14ExpressionNode10isLocationEv
__ZN3JSC21FunctionCallValueNode12emitBytecodeERNS_17BytecodeGeneratorEPNS_10RegisterIDE
__ZN3JSC17BytecodeGenerator8emitCallEPNS_10RegisterIDES2_NS_16ExpectedFunctionERNS_13CallArgumentsEjjjjj
__ZN3JSC17BytecodeGenerator8emitCallENS_8OpcodeIDEPNS_10RegisterIDES3_NS_16ExpectedFunctionERNS_13CallArgumentsEjjjjj
__ZN3JSC16ArgumentListNode12emitBytecodeERNS_17BytecodeGeneratorEPNS_10RegisterIDE
__ZN3WTF15SegmentedVectorIN3JSC12ArrayProfileELm4ELm0EE13ensureSegmentEmm
__ZN3WTF6VectorIPNS0_IN3JSC12ArrayProfileELm4ENS_15CrashOnOverflowEEELm0ES3_E14expandCapacityEm
__ZN3JSC6ParserINS_5LexerIhEEE24parseFunctionDeclarationINS_10ASTBuilderEEENT_9StatementERS6_
__ZN3JSC6ParserINS_5LexerIhEEE17parseFunctionInfoILNS_20FunctionRequirementsE1ELb1ENS_10ASTBuilderEEEbRT1_RPKNS_10IdentifierERNS7_19FormalParameterListERNS7_12FunctionBodyERjSH_RiSH_
__ZN3JSC5Scope30restoreFromSourceProviderCacheEPKNS_23SourceProviderCacheItemE
__ZN3JSC10ASTBuilder23createFuncDeclStatementERKNS_15JSTokenLocationEPKNS_10IdentifierEPNS_16FunctionBodyNodeEPNS_13ParameterNodeEjjiij
__ZN3WTF6VectorIPN3JSC16FunctionBodyNodeELm0ENS_15CrashOnOverflowEE14expandCapacityEm
__ZNK3JSC14ExpressionNode11isCommaNodeEv
__ZN3JSC9CommaNodeC2ERKNS_15JSTokenLocationEPNS_14ExpressionNodeES5_
__ZNK3JSC9CommaNode11isCommaNodeEv
__ZN3JSC9CommaNode6appendEPNS_14ExpressionNodeE
__ZN3JSC10ASTBuilder11makeAddNodeERKNS_15JSTokenLocationEPNS_14ExpressionNodeES5_b
__ZNK3JSC14ExpressionNode8isNumberEv
__ZN3JSC10ASTBuilder16appendUnaryTokenERiijjj
__ZN3JSC10ASTBuilder16createLogicalNotERKNS_15JSTokenLocationEPNS_14ExpressionNodeE
__ZNK3JSC10NumberNode8isNumberEv
__ZN3WTF6VectorIPvLm0ENS_15CrashOnOverflowEE14expandCapacityEm
__ZN3WTF6VectorIPN3JSC14ExpressionNodeELm8ENS_15CrashOnOverflowEE15reserveCapacityEm
__ZN3JSC6ParserINS_5LexerIhEEE17parseTryStatementINS_10ASTBuilderEEENT_9StatementERS6_
__ZN3JSC17BytecodeGenerator20emitInitLazyRegisterEPNS_10RegisterIDE
__ZN3WTF6VectorIPN3JSC10RegisterIDELm0ENS_20UnsafeVectorOverflowEE14expandCapacityEm
__ZN3JSC9ScopeNode8capturesERKNS_10IdentifierE
__ZN3JSC17BytecodeGenerator6addVarERKNS_10IdentifierEbRPNS_10RegisterIDE
__ZN3JSC17BytecodeGenerator15emitNewFunctionEPNS_10RegisterIDEPNS_16FunctionBodyNodeE
__ZN3JSC17UnlinkedCodeBlock15addFunctionDeclEPNS_26UnlinkedFunctionExecutableE
__ZN3JSC17BytecodeGenerator23emitNewFunctionInternalEPNS_10RegisterIDEjb
__ZN3JSC12SmallStrings27createSingleCharacterStringEPNS_2VMEh
__ZN3JSC12FuncDeclNode12emitBytecodeERNS_17BytecodeGeneratorEPNS_10RegisterIDE
__ZN3JSC9CommaNode12emitBytecodeERNS_17BytecodeGeneratorEPNS_10RegisterIDE
__ZN3JSC15DotAccessorNode12emitBytecodeERNS_17BytecodeGeneratorEPNS_10RegisterIDE
__ZN3JSC17BytecodeGenerator11emitGetByIdEPNS_10RegisterIDES2_RKNS_10IdentifierE
__ZN3JSC19FunctionCallDotNode12emitBytecodeERNS_17BytecodeGeneratorEPNS_10RegisterIDE
__ZN3JSC10RegExpNode12emitBytecodeERNS_17BytecodeGeneratorEPNS_10RegisterIDE
__ZN3JSC11regExpFlagsERKN3WTF6StringE
__ZN3JSC4Yarr22YarrPatternConstructor12assertionBOLEv
__ZN3WTF6VectorIN3JSC4Yarr11PatternTermELm0ENS_15CrashOnOverflowEE15reserveCapacityEm
__ZN3JSC4Yarr6ParserINS0_22YarrPatternConstructorEhE21parseParenthesesBeginEv
__ZN3JSC4Yarr22YarrPatternConstructor30atomParenthesesSubpatternBeginEb
__ZN3JSC4Yarr6ParserINS0_22YarrPatternConstructorEhE11parseEscapeILb0ES2_EEbRT0_
__ZN3JSC4Yarr22YarrPatternConstructor20atomPatternCharacterEt
__ZN3JSC4Yarr22YarrPatternConstructor25atomBuiltInCharacterClassENS0_23BuiltInCharacterClassIDEb
__ZN3JSC4Yarr11YarrPattern21newlineCharacterClassEv
__ZN3JSC4Yarr13newlineCreateEv
__ZN3WTF6VectorItLm0ENS_15CrashOnOverflowEE14expandCapacityEm
__ZN3WTF6VectorINS_6OwnPtrIN3JSC4Yarr14CharacterClassEEELm0ENS_15CrashOnOverflowEE14expandCapacityEm
__ZN3JSC4Yarr22YarrPatternConstructor18atomParenthesesEndEv
__ZN3JSC4Yarr22YarrPatternConstructor12assertionEOLEv
__ZN3JSC4Yarr22YarrPatternConstructor15copyDisjunctionEPNS0_18PatternDisjunctionEb
__ZN3JSC4Yarr22YarrPatternConstructor23setupDisjunctionOffsetsEPNS0_18PatternDisjunctionEjj
__ZN3JSC4Yarr14CharacterClassD2Ev
__ZN3JSC17BytecodeGenerator13emitNewRegExpEPNS_10RegisterIDEPNS_6RegExpE
__ZN3JSC17UnlinkedCodeBlock9addRegExpEPNS_6RegExpE
__ZN3WTF6VectorIN3JSC12WriteBarrierINS1_6RegExpEEELm0ENS_15CrashOnOverflowEE15reserveCapacityEm
__ZN3JSC4Yarr6ParserINS0_22YarrPatternConstructorEhE19parseCharacterClassEv
__ZN3JSC4Yarr6ParserINS0_22YarrPatternConstructorEhE28CharacterClassParserDelegate20atomPatternCharacterEtb
__ZN3JSC4Yarr25CharacterClassConstructor8putRangeEtt
__ZN3JSC4Yarr25CharacterClassConstructor14addSortedRangeERN3WTF6VectorINS0_14CharacterRangeELm0ENS2_15CrashOnOverflowEEEtt
__ZN3WTF6VectorIN3JSC4Yarr14CharacterRangeELm0ENS_15CrashOnOverflowEE15reserveCapacityEm
__ZN3JSC4Yarr22YarrPatternConstructor21atomCharacterClassEndEv
__ZNK3JSC10NumberNode7jsValueERNS_17BytecodeGeneratorE
__ZN3JSC12BinaryOpNode12emitBytecodeERNS_17BytecodeGeneratorEPNS_10RegisterIDE
__ZNK3JSC14ExpressionNode5isAddEv
__ZN3JSC7JSScope13objectAtScopeEPS0_
__ZN3JSC17BytecodeGenerator12emitBinaryOpENS_8OpcodeIDEPNS_10RegisterIDES3_S3_NS_12OperandTypesE
__ZN3JSC4Yarr11YarrPattern20digitsCharacterClassEv
__ZNK3JSC11BooleanNode7jsValueERNS_17BytecodeGeneratorE
__ZN3JSC4Yarr6ParserINS0_22YarrPatternConstructorEhE11parseEscapeILb1ENS3_28CharacterClassParserDelegateEEEbRT0_
__ZN3JSC4Yarr25CharacterClassConstructor7putCharEt
__ZN3JSC4Yarr25CharacterClassConstructor9addSortedERN3WTF6VectorItLm0ENS2_15CrashOnOverflowEEEt
__ZN3JSC4Yarr11YarrPattern20spacesCharacterClassEv
__ZN3JSC4Yarr12spacesCreateEv
__ZN3JSC4Yarr22YarrPatternConstructor12quantifyAtomEjjb
__ZN3JSC13LogicalOpNode12emitBytecodeERNS_17BytecodeGeneratorEPNS_10RegisterIDE
__ZN3JSC17BytecodeGenerator14emitJumpIfTrueEPNS_10RegisterIDEPNS_5LabelE
__ZN3JSC4Yarr22YarrPatternConstructor21assertionWordBoundaryEb
__ZN3WTF6OwnPtrIN3JSC4Yarr18PatternDisjunctionEEaSERKNS_10PassOwnPtrIS3_EE
__ZN3WTF6VectorINS_6OwnPtrIN3JSC4Yarr18PatternAlternativeEEELm0ENS_15CrashOnOverflowEE14shrinkCapacityEm
__ZN3JSC4Yarr11YarrPattern22wordcharCharacterClassEv
__ZN3JSC4Yarr14wordcharCreateEv
__ZN3JSC4Yarr6ParserINS0_22YarrPatternConstructorEhE28CharacterClassParserDelegate25atomBuiltInCharacterClassENS0_23BuiltInCharacterClassIDEb
__ZN3JSC4Yarr22YarrPatternConstructor25atomCharacterClassBuiltInENS0_23BuiltInCharacterClassIDEb
__ZN3JSC4Yarr25CharacterClassConstructor6appendEPKNS0_14CharacterClassE
__ZN3WTF6VectorINS_6OwnPtrIN3JSC4Yarr18PatternDisjunctionEEELm4ENS_15CrashOnOverflowEE15reserveCapacityEm
__ZN3JSC15ConditionalNode12emitBytecodeERNS_17BytecodeGeneratorEPNS_10RegisterIDE
__ZN3JSC14ExpressionNode30emitBytecodeInConditionContextERNS_17BytecodeGeneratorEPNS_5LabelES4_NS_15FallThroughModeE
__ZN3JSC17BytecodeGenerator8emitJumpEPNS_5LabelE
__ZN3JSC4Yarr22YarrPatternConstructor31atomParentheticalAssertionBeginEb
__ZNK3JSC7AddNode5isAddEv
__ZN3JSC12BinaryOpNode10emitStrcatERNS_17BytecodeGeneratorEPNS_10RegisterIDES4_PNS_21ReadModifyResolveNodeE
__ZNK3JSC10StringNode8isStringEv
__ZN3JSC17BytecodeGenerator15emitToPrimitiveEPNS_10RegisterIDES2_
__ZN3JSC17BytecodeGenerator10emitStrcatEPNS_10RegisterIDES2_i
__ZN3JSC23FunctionCallResolveNode12emitBytecodeERNS_17BytecodeGeneratorEPNS_10RegisterIDE
__ZN3JSC7TryNode12emitBytecodeERNS_17BytecodeGeneratorEPNS_10RegisterIDE
__ZN3JSC17BytecodeGenerator7pushTryEPNS_5LabelE
__ZN3WTF15SegmentedVectorIN3JSC7TryDataELm8ELm32EE6appendIS2_EEvRKT_
__ZN3WTF6VectorIPNS0_IN3JSC7TryDataELm8ENS_15CrashOnOverflowEEELm0ES3_E14expandCapacityEm
__ZN3WTF6VectorIN3JSC10TryContextELm0ENS_15CrashOnOverflowEE15reserveCapacityEm
__ZN3JSC17BytecodeGenerator18popTryAndEmitCatchEPNS_7TryDataEPNS_10RegisterIDEPNS_5LabelE
__ZN3WTF6VectorIN3JSC8TryRangeELm0ENS_15CrashOnOverflowEE15reserveCapacityEm
__ZN3JSC17BytecodeGenerator17emitPushNameScopeERKNS_10IdentifierEPNS_10RegisterIDEj
__ZN3WTF6VectorIN3JSC18ControlFlowContextELm0ENS_20UnsafeVectorOverflowEE15reserveCapacityEm
__ZN3JSC17BytecodeGenerator12emitPopScopeEv
__ZN3JSC19BracketAccessorNode12emitBytecodeERNS_17BytecodeGeneratorEPNS_10RegisterIDE
__ZN3JSC17BytecodeGenerator22willResolveToArgumentsERKNS_10IdentifierE
__ZN3JSC17BytecodeGenerator12emitGetByValEPNS_10RegisterIDES2_S2_
__ZN3WTF6VectorIN3JSC4Yarr14CharacterRangeELm0ENS_15CrashOnOverflowEE6insertIS3_EEvmRKT_
__ZN3JSC21ThrowableBinaryOpNode12emitBytecodeERNS_17BytecodeGeneratorEPNS_10RegisterIDE
__ZNK3JSC11ResolveNode6isPureERNS_17BytecodeGeneratorE
__ZN3JSC9EqualNode12emitBytecodeERNS_17BytecodeGeneratorEPNS_10RegisterIDE
__ZNK3JSC14ExpressionNode6isNullEv
__ZN3JSC17TypeOfResolveNode12emitBytecodeERNS_17BytecodeGeneratorEPNS_10RegisterIDE
__ZN3JSC17BytecodeGenerator15emitResolveBaseEPNS_10RegisterIDERKNS_13ResolveResultERKNS_10IdentifierE
__ZN3JSC17BytecodeGenerator11emitUnaryOpENS_8OpcodeIDEPNS_10RegisterIDES3_
__ZN3JSC17BytecodeGenerator19emitResolveWithThisEPNS_10RegisterIDES2_RKNS_13ResolveResultERKNS_10IdentifierE
__ZNK3JSC13StatementNode12isReturnNodeEv
__ZN3JSC17UnlinkedCodeBlock19addExceptionHandlerERKNS_19UnlinkedHandlerInfoE
__ZN3WTF6VectorIN3JSC19UnlinkedHandlerInfoELm0ENS_15CrashOnOverflowEE15reserveCapacityEm
__ZN3JSC9CommaNodeD1Ev
__ZN3WTF6VectorIN3JSC11HandlerInfoELm0ENS_15CrashOnOverflowEE15reserveCapacityEm
__ZN3JSC9WeakGCMapINSt3__14pairIPNS_8JSObjectEjEENS_9StructureEN3WTF8PairHashIS4_jEENS7_10HashTraitsIS5_EEE5gcMapEv
__ZN3WTF9HashTableINSt3__14pairIPN3JSC8JSObjectEjEENS_12KeyValuePairIS6_NS3_4WeakINS3_9StructureEEEEENS_24KeyValuePairKeyExtractorISB_EENS_8PairHashIS5_jEENS_18HashMapValueTraitsINS_10HashTraitsIS6_EENSH_ISA_EEEESI_E16lookupForWritingINS_22IdentityHashTranslatorISF_EES6_EENS2_IPSB_bEERKT0_
__ZN3WTF9HashTableINSt3__14pairIPN3JSC8JSObjectEjEENS_12KeyValuePairIS6_NS3_4WeakINS3_9StructureEEEEENS_24KeyValuePairKeyExtractorISB_EENS_8PairHashIS5_jEENS_18HashMapValueTraitsINS_10HashTraitsIS6_EENSH_ISA_EEEESI_E3addINS_17HashMapTranslatorISK_SF_EES6_NS3_8PassWeakIS9_EEEENS_18HashTableAddResultINS_17HashTableIteratorIS6_SB_SD_SF_SK_SI_EEEERKT0_RKT1_
__ZN3WTF9HashTableINSt3__14pairIPN3JSC8JSObjectEjEENS_12KeyValuePairIS6_NS3_4WeakINS3_9StructureEEEEENS_24KeyValuePairKeyExtractorISB_EENS_8PairHashIS5_jEENS_18HashMapValueTraitsINS_10HashTraitsIS6_EENSH_ISA_EEEESI_E6lookupINS_22IdentityHashTranslatorISF_EES6_EEPSB_RKT0_
__ZN3WTF9HashTableINSt3__14pairIPN3JSC8JSObjectEjEENS_12KeyValuePairIS6_NS3_4WeakINS3_9StructureEEEEENS_24KeyValuePairKeyExtractorISB_EENS_8PairHashIS5_jEENS_18HashMapValueTraitsINS_10HashTraitsIS6_EENSH_ISA_EEEESI_E6rehashEi
__ZNK3JSC7JSValue3getEPNS_9ExecStateENS_12PropertyNameERNS_12PropertySlotE
__ZNK3JSC19BracketAccessorNode10isLocationEv
__ZNK3JSC19BracketAccessorNode21isBracketAccessorNodeEv
__ZN3JSC17BytecodeGenerator16emitGetStaticVarEPNS_10RegisterIDERKNS_13ResolveResultERKNS_10IdentifierE
__ZN3JSC4Yarr11YarrPattern25nonwordcharCharacterClassEv
__ZN3JSC4Yarr17nonwordcharCreateEv
__ZN3JSC4Yarr22YarrPatternConstructor17atomBackReferenceEj
__ZNK3JSC7JSScope14isDynamicScopeERb
__ZN3JSC17AssignBracketNode12emitBytecodeERNS_17BytecodeGeneratorEPNS_10RegisterIDE
__ZN3JSC17BytecodeGenerator12emitPutByValEPNS_10RegisterIDES2_S2_
__ZN3JSC12RegExpObjectC1EPNS_14JSGlobalObjectEPNS_9StructureEPNS_6RegExpE
__ZN3JSC17ObjectConstructor18getOwnPropertySlotEPNS_6JSCellEPNS_9ExecStateENS_12PropertyNameERNS_12PropertySlotE
__ZN3JSC21getStaticFunctionSlotINS_8JSObjectEEEbPNS_9ExecStateEPKNS_9HashTableEPS1_NS_12PropertyNameERNS_12PropertySlotE
__ZN3JSC14ArrayPrototype18getOwnPropertySlotEPNS_6JSCellEPNS_9ExecStateENS_12PropertyNameERNS_12PropertySlotE
__ZN3JSC23setUpStaticFunctionSlotEPNS_9ExecStateEPKNS_9HashEntryEPNS_8JSObjectENS_12PropertyNameERNS_12PropertySlotE
__ZN3JSC17StringConstructor18getOwnPropertySlotEPNS_6JSCellEPNS_9ExecStateENS_12PropertyNameERNS_12PropertySlotE
__ZN3JSC12StringObject18getOwnPropertySlotEPNS_6JSCellEPNS_9ExecStateENS_12PropertyNameERNS_12PropertySlotE
__ZNK3JSC9Structure14prototypeChainERNS_2VMEPNS_14JSGlobalObjectE
__ZN3JSC14StructureChainC1ERNS_2VMEPNS_9StructureE
__ZN3JSC13PropertyTable5cloneERNS_2VMEPNS_6JSCellEjRKS0_
__ZN3JSC13PropertyTableC2ERNS_2VMEPNS_6JSCellEjRKS0_
__ZN3JSC6ParserINS_5LexerIhEEE17parseForStatementINS_10ASTBuilderEEENT_9StatementERS6_
__ZN3JSC6ParserINS_5LexerIhEEE22parseContinueStatementINS_10ASTBuilderEEENT_9StatementERS6_
__ZN3JSC17BytecodeGenerator29uncheckedRegisterForArgumentsEv
__ZN3JSC17BytecodeGenerator20emitGetArgumentByValEPNS_10RegisterIDES2_S2_
__ZN3JSC17BytecodeGenerator22emitGetArgumentsLengthEPNS_10RegisterIDES2_
__ZN3JSC11UnaryOpNode12emitBytecodeERNS_17BytecodeGeneratorEPNS_10RegisterIDE
__ZN3JSC8ThisNode12emitBytecodeERNS_17BytecodeGeneratorEPNS_10RegisterIDE
__ZN3JSC10PrefixNode12emitBytecodeERNS_17BytecodeGeneratorEPNS_10RegisterIDE
__ZN3JSC10PrefixNode11emitResolveERNS_17BytecodeGeneratorEPNS_10RegisterIDE
__ZN3JSC17BytecodeGenerator7emitDecEPNS_10RegisterIDE
__ZN3JSC7ForNode12emitBytecodeERNS_17BytecodeGeneratorEPNS_10RegisterIDE
__ZN3JSC17BytecodeGenerator13newLabelScopeENS_10LabelScope4TypeEPKNS_10IdentifierE
__ZN3JSC17BytecodeGenerator12emitLoopHintEv
__ZNK3JSC8NullNode7jsValueERNS_17BytecodeGeneratorE
__ZNK3JSC8NullNode6isNullEv
__ZN3JSC9ForInNode12emitBytecodeERNS_17BytecodeGeneratorEPNS_10RegisterIDE
__ZN3JSC17BytecodeGenerator20emitGetPropertyNamesEPNS_10RegisterIDES2_S2_S2_PNS_5LabelE
__ZN3JSC17BytecodeGenerator18pushOptimisedForInEPNS_10RegisterIDES2_S2_S2_
__ZN3WTF6VectorIN3JSC12ForInContextELm0ENS_15CrashOnOverflowEE14appendSlowCaseIS2_EEvRKT_
__ZN3WTF6VectorIN3JSC12ForInContextELm0ENS_15CrashOnOverflowEE15reserveCapacityEm
__ZN3WTF11VectorMoverILb0EN3JSC12ForInContextEE4moveEPKS2_S5_PS2_
__ZNK3JSC12ContinueNode10isContinueEv
__ZN3JSC17BytecodeGenerator14continueTargetERKNS_10IdentifierE
__ZN3JSC13LogicalOpNode30emitBytecodeInConditionContextERNS_17BytecodeGeneratorEPNS_5LabelES4_NS_15FallThroughModeE
__ZN3JSC17BytecodeGenerator20emitNextPropertyNameEPNS_10RegisterIDES2_S2_S2_S2_PNS_5LabelE
__ZN3JSC11PostfixNode12emitBytecodeERNS_17BytecodeGeneratorEPNS_10RegisterIDE
__ZN3JSC11PostfixNode11emitResolveERNS_17BytecodeGeneratorEPNS_10RegisterIDE
__ZN3JSC17BytecodeGenerator7emitIncEPNS_10RegisterIDE
__ZN3JSC6JSCell11getCallDataEPS0_RNS_8CallDataE
__ZN3JSC8JSObject16getPropertyNamesEPS0_PNS_9ExecStateERNS_17PropertyNameArrayENS_15EnumerationModeE
__ZN3JSC8JSObject19getOwnPropertyNamesEPS0_PNS_9ExecStateERNS_17PropertyNameArrayENS_15EnumerationModeE
__ZN3JSC8JSObject27getOwnNonIndexPropertyNamesEPS0_PNS_9ExecStateERNS_17PropertyNameArrayENS_15EnumerationModeE
__ZN3WTF6VectorIN3JSC10IdentifierELm20ENS_15CrashOnOverflowEE15reserveCapacityEm
__ZN3JSC13jsOwnedStringEPNS_2VMERKN3WTF6StringE
__ZN3JSC9Structure16allocateRareDataERNS_2VME
__ZN3JSC17StructureRareData6createERNS_2VMEPNS_9StructureE
__ZN3JSC5LLInt8getByValEPNS_9ExecStateENS_7JSValueES3_
__ZN3JSC8JSString18getOwnPropertySlotEPNS_6JSCellEPNS_9ExecStateENS_12PropertyNameERNS_12PropertySlotE
__ZN3JSCL20stringProtoFuncSplitEPNS_9ExecStateE
__ZN3JSC7JSArray6createERNS_2VMEPNS_9StructureEj
__ZN3JSC11jsSubstringEPNS_2VMERKN3WTF6StringEjj
__ZN3JSC8JSObject32putDirectIndexBeyondVectorLengthEPNS_9ExecStateEjNS_7JSValueEjNS_18PutDirectIndexModeE
__ZN3JSC8JSObject45putByIndexBeyondVectorLengthWithoutAttributesILh26EEEvPNS_9ExecStateEjNS_7JSValueE
__ZN3JSC8JSObject16ensureLengthSlowERNS_2VMEj
__ZN3JSC11CopiedSpace13tryReallocateEPPvmm
__ZN3JSC6ParserINS_5LexerIhEEE19parseBreakStatementINS_10ASTBuilderEEENT_9StatementERS6_
__ZN3WTF6VectorIPN3JSC14ExpressionNodeELm0ENS_15CrashOnOverflowEE14expandCapacityEm
__ZNK3JSC9BreakNode7isBreakEv
__ZN3JSC17BytecodeGenerator11breakTargetERKNS_10IdentifierE
__ZN3JSC24ApplyFunctionCallDotNode12emitBytecodeERNS_17BytecodeGeneratorEPNS_10RegisterIDE
__ZNK3JSC14ExpressionNode13isSimpleArrayEv
__ZN3JSC17BytecodeGenerator26emitJumpIfNotFunctionApplyEPNS_10RegisterIDEPNS_5LabelE
__ZN3JSC17BytecodeGenerator15emitCallVarargsEPNS_10RegisterIDES2_S2_S2_S2_S2_jjjjj
__ZN3JSCL16emitPostIncOrDecERNS_17BytecodeGeneratorEPNS_10RegisterIDES3_NS_8OperatorE
__ZN3JSC23CallFunctionCallDotNode12emitBytecodeERNS_17BytecodeGeneratorEPNS_10RegisterIDE
__ZN3JSC17BytecodeGenerator25emitJumpIfNotFunctionCallEPNS_10RegisterIDEPNS_5LabelE
__ZN3JSC9CodeBlock20getOrAddArrayProfileEj
__ZN3WTF15SegmentedVectorIN3JSC12ArrayProfileELm4ELm0EE6appendIS2_EEvRKT_
__ZNK3JSC14ExpressionNode10isSubtractEv
__ZN3JSC23objectProtoFuncToStringEPNS_9ExecStateE
__ZN3JSC8JSObject9classNameEPKS0_
__ZN3WTF13tryMakeStringIPKcNS_6StringES2_EENS_10PassRefPtrINS_10StringImplEEET_T0_T1_
__ZN3JSCL26stringProtoFuncToLowerCaseEPNS_9ExecStateE
__ZNK3JSC12JSRopeString11resolveRopeEPNS_9ExecStateE
__ZN3JSC9CodeBlock32updateAllValueProfilePredictionsENS_19OperationInProgressE
__ZN3JSC9CodeBlock36updateAllPredictionsAndCountLivenessENS_19OperationInProgressERjS2_
__ZN3JSC16ValueProfileBaseILj1EE24computeUpdatedPredictionENS_19OperationInProgressE
__ZN3JSC20speculationFromValueENS_7JSValueE
__ZN3JSC39CompressedLazyOperandValueProfileHolder25computeUpdatedPredictionsENS_19OperationInProgressE
__ZN3JSC16ExecutionCounter29checkIfThresholdCrossedAndSetEPNS_9CodeBlockE
__ZN3JSC17FunctionCodeBlock14jitCompileImplEPNS_9ExecStateE
__ZN3JSC18FunctionExecutable17jitCompileForCallEPNS_9ExecStateE
__ZN3JSC31jitCompileFunctionIfAppropriateEPNS_9ExecStateERN3WTF6OwnPtrINS_17FunctionCodeBlockEEERNS_7JITCodeERNS_21MacroAssemblerCodePtrENS7_7JITTypeEjNS_20JITCompilationEffortE
__ZN3JSC9CodeBlock19unlinkIncomingCallsEv
__ZN3JSC3JIT14privateCompileEPNS_21MacroAssemblerCodePtrENS_20JITCompilationEffortE
__ZN3JSC17FunctionCodeBlock25canCompileWithDFGInternalEv
__ZN3JSC3DFG27mightCompileFunctionForCallEPNS_9CodeBlockE
__ZN3JSC3DFG17canCompileOpcodesEPNS_9CodeBlockE
__ZN3JSC3DFG16canHandleOpcodesINS0_15CapabilityLevelEXadL_ZNS0_16canCompileOpcodeENS_8OpcodeIDEPNS_9CodeBlockEPNS_11InstructionEEEEET_S5_S8_
__ZN3JSC20MacroAssemblerX86_648branch64ENS_23MacroAssemblerX86Common19RelationalConditionENS_22AbstractMacroAssemblerINS_12X86AssemblerEE15AbsoluteAddressENS_12X86Registers10RegisterIDE
__ZN3JSC20MacroAssemblerX86_648branch64ENS_23MacroAssemblerX86Common19RelationalConditionENS_22AbstractMacroAssemblerINS_12X86AssemblerEE7AddressENS5_12TrustedImm64E
__ZN3JSC3JIT22privateCompileMainPassEv
__ZN3JSC3JIT13emit_op_enterEPNS_11InstructionE
__ZN3JSC3JIT26emitEnterOptimizationCheckEv
__ZN3JSC20MacroAssemblerX86_6411branchAdd32ENS_23MacroAssemblerX86Common15ResultConditionENS_22AbstractMacroAssemblerINS_12X86AssemblerEE12TrustedImm32ENS5_15AbsoluteAddressE
__ZN3JSC11JITStubCall11addArgumentENS_22AbstractMacroAssemblerINS_12X86AssemblerEE12TrustedImm32E
__ZN3JSC11JITStubCall4callEv
__ZN3JSC20MacroAssemblerX86_644callEv
__ZN3JSC20MacroAssemblerX86_6413moveWithPatchENS_22AbstractMacroAssemblerINS_12X86AssemblerEE13TrustedImmPtrENS_12X86Registers10RegisterIDE
__ZN3JSC12X86Assembler9movq_i64rExNS_12X86Registers10RegisterIDE
__ZN3WTF6VectorIN3JSC10CallRecordELm0ENS_15CrashOnOverflowEE15reserveCapacityEm
__ZN3JSC3JIT22emit_op_get_scoped_varEPNS_11InstructionE
__ZN3JSC3JIT22emitValueProfilingSiteEv
__ZN3WTF16binarySearchImplIN3JSC12ValueProfileEiNS_15SegmentedVectorIS2_Lm8ELm32EEEPFiPS2_ELNS_16BinarySearchModeE0EEEPT_RT1_mT0_RKT2_
__ZN3JSC29getValueProfileBytecodeOffsetINS_12ValueProfileEEEiPT_
__ZN3JSC3JIT11emit_op_movEPNS_11InstructionE
__ZN3JSC3JIT20emit_op_to_primitiveEPNS_11InstructionE
__ZN3WTF6VectorIN3JSC13SlowCaseEntryELm0ENS_15CrashOnOverflowEE15reserveCapacityEm
__ZN3JSC3JIT14emit_op_strcatEPNS_11InstructionE
__ZN3JSC11JITStubCall4callEj
__ZN3JSC3JIT17emit_op_get_by_idEPNS_11InstructionE
__ZN3JSC3JIT21compileGetByIdHotPathEiPNS_10IdentifierE
__ZN3JSC20MacroAssemblerX86_6435load64WithCompactAddressOffsetPatchENS_22AbstractMacroAssemblerINS_12X86AssemblerEE7AddressENS_12X86Registers10RegisterIDE
__ZN3JSC12X86Assembler23X86InstructionFormatter17oneByteOp64_disp8ENS0_15OneByteOpcodeIDEiNS_12X86Registers10RegisterIDEi
__ZN3WTF6VectorIN3JSC27PropertyStubCompilationInfoELm0ENS_15CrashOnOverflowEE15reserveCapacityEm
__ZN3JSC3JIT12emit_op_callEPNS_11InstructionE
__ZN3JSC3JIT13compileOpCallENS_8OpcodeIDEPNS_11InstructionEj
__ZN3WTF6VectorIN3JSC28StructureStubCompilationInfoELm0ENS_15CrashOnOverflowEE15reserveCapacityEm
__ZN3JSC3JIT23emit_op_call_put_resultEPNS_11InstructionE
__ZN3JSC3JIT18emit_op_put_by_valEPNS_11InstructionE
__ZN3JSC3JIT22emitArrayProfilingSiteENS_12X86Registers10RegisterIDES2_PNS_12ArrayProfileE
__ZN3JSC12X86Assembler23X86InstructionFormatter9twoByteOpENS0_15TwoByteOpcodeIDEiNS_12X86Registers10RegisterIDEi
__ZN3JSC12ArrayProfile24computeUpdatedPredictionEPNS_9CodeBlockENS_19OperationInProgressE
__ZN3JSC3JIT29emitGenericContiguousPutByValEPNS_11InstructionERNS_22AbstractMacroAssemblerINS_12X86AssemblerEE13PatchableJumpEh
__ZN3JSC23MacroAssemblerX86Common8branch32ENS0_19RelationalConditionENS_12X86Registers10RegisterIDENS_22AbstractMacroAssemblerINS_12X86AssemblerEE12TrustedImm32E
__ZN3JSC20MacroAssemblerX86_646store8ENS_22AbstractMacroAssemblerINS_12X86AssemblerEE12TrustedImm32EPv
__ZN3WTF12VectorBufferIN3JSC22AbstractMacroAssemblerINS1_12X86AssemblerEE4JumpELm2EE4swapERS6_
__ZN3WTF6VectorIN3JSC20ByValCompilationInfoELm0ENS_15CrashOnOverflowEE15reserveCapacityEm
__ZN3JSC3JIT11emit_op_retEPNS_11InstructionE
__ZN3JSC3JIT22privateCompileLinkPassEv
__ZN3JSC3JIT23privateCompileSlowCasesEv
__ZN3WTF15SegmentedVectorIN3JSC15RareCaseProfileELm8ELm32EE6appendIS2_EEvRKT_
__ZN3WTF6VectorIPNS0_IN3JSC15RareCaseProfileELm8ENS_15CrashOnOverflowEEELm0ES3_E14expandCapacityEm
__ZN3JSC3JIT24emitSlow_op_to_primitiveEPNS_11InstructionERPNS_13SlowCaseEntryE
__ZN3JSC20MacroAssemblerX86_645add32ENS_22AbstractMacroAssemblerINS_12X86AssemblerEE12TrustedImm32ENS3_15AbsoluteAddressE
__ZN3JSC3JIT21emitSlow_op_get_by_idEPNS_11InstructionERPNS_13SlowCaseEntryE
__ZN3JSC3JIT22compileGetByIdSlowCaseEiiPNS_10IdentifierERPNS_13SlowCaseEntryE
__ZN3JSC3JIT16emitSlow_op_callEPNS_11InstructionERPNS_13SlowCaseEntryE
__ZN3JSC3JIT21compileOpCallSlowCaseENS_8OpcodeIDEPNS_11InstructionERPNS_13SlowCaseEntryEj
__ZN3JSC17linkCallGeneratorEPNS_2VME
__ZN3JSCL16linkForGeneratorEPNS_2VMENS_11FunctionPtrES2_PKc
__ZN3JSCL19generateSlowCaseForEPNS_2VMERNS_14JSInterfaceJITE
__ZN3JSC3JIT22emitSlow_op_put_by_valEPNS_11InstructionERPNS_13SlowCaseEntryE
__ZN3JSC11JITStubCall11addArgumentEjNS_12X86Registers10RegisterIDE
__ZN3WTF6VectorIN3JSC32CallReturnOffsetToBytecodeOffsetELm0ENS_20UnsafeVectorOverflowEE15reserveCapacityEm
__ZN3WTF6VectorIN3JSC17StructureStubInfoELm0ENS_15CrashOnOverflowEE15reserveCapacityEm
__ZN3WTF11VectorMoverILb0EN3JSC17StructureStubInfoEE4moveEPKS2_S5_PS2_
__ZN3WTF6VectorIN3JSC9ByValInfoELm0ENS_15CrashOnOverflowEE15reserveCapacityEm
__ZN3WTF6VectorIN3JSC12CallLinkInfoELm0ENS_15CrashOnOverflowEE15reserveCapacityEm
__ZN3JSC9CodeBlock11shrinkToFitENS0_10ShrinkModeE
__ZN3WTF6VectorIPNS0_IN3JSC17LLIntCallLinkInfoELm8ENS_15CrashOnOverflowEEELm0ES3_E14shrinkCapacityEm
__ZN3WTF6VectorIN3JSC17StructureStubInfoELm0ENS_15CrashOnOverflowEE14shrinkCapacityEm
__ZN3WTF6VectorIN3JSC12CallLinkInfoELm0ENS_15CrashOnOverflowEE14shrinkCapacityEm
__ZN3WTF6VectorIPNS0_IN3JSC15RareCaseProfileELm8ENS_15CrashOnOverflowEEELm0ES3_E14shrinkCapacityEm
__ZN3WTF6VectorIN3JSC11HandlerInfoELm0ENS_15CrashOnOverflowEE14shrinkCapacityEm
__ZN3WTF6VectorIN3JSC15SimpleJumpTableELm0ENS_15CrashOnOverflowEE14shrinkCapacityEm
__ZN3WTF6VectorIN3JSC15StringJumpTableELm0ENS_15CrashOnOverflowEE14shrinkCapacityEm
__ZN3WTF6VectorIN3JSC32CallReturnOffsetToBytecodeOffsetELm0ENS_20UnsafeVectorOverflowEE14shrinkCapacityEm
__ZN3WTF6VectorIPNS0_IN3JSC15InlineCallFrameELm4ENS_15CrashOnOverflowEEELm0ES3_E14shrinkCapacityEm
__ZN3WTF6VectorIN3JSC28CodeOriginAtCallReturnOffsetELm0ENS_20UnsafeVectorOverflowEE14shrinkCapacityEm
_cti_op_strcat
_cti_op_get_by_id
_cti_vm_lazyLinkCall
__ZN3JSC11lazyLinkForEPNS_9ExecStateENS_22CodeSpecializationKindE
_cti_op_put_by_val
__ZN3JSCL8putByValEPNS_9ExecStateENS_7JSValueES2_S2_
__ZN3JSC12RegExpObject18getOwnPropertySlotEPNS_6JSCellEPNS_9ExecStateENS_12PropertyNameERNS_12PropertySlotE
__ZN3JSC18getStaticValueSlotINS_12RegExpObjectENS_8JSObjectEEEbPNS_9ExecStateEPKNS_9HashTableEPT_NS_12PropertyNameERNS_12PropertySlotE
__ZN3JSC15RegExpPrototype18getOwnPropertySlotEPNS_6JSCellEPNS_9ExecStateENS_12PropertyNameERNS_12PropertySlotE
__ZN3JSCL19regExpProtoFuncExecEPNS_9ExecStateE
__ZN3JSC12RegExpObject4execEPNS_9ExecStateEPNS_8JSStringE
__ZN3JSC12RegExpObject5matchEPNS_9ExecStateEPNS_8JSStringE
__ZN3JSC6RegExp5matchERNS_2VMERKN3WTF6StringEj
__ZN3JSC6RegExp16compileMatchOnlyEPNS_2VMENS_4Yarr12YarrCharSizeE
__ZN3JSC11RegExpCache16addToStrongCacheEPNS_6RegExpE
__ZN3JSC4Yarr10jitCompileERNS0_11YarrPatternENS0_12YarrCharSizeEPNS_2VMERNS0_13YarrCodeBlockENS0_18YarrJITCompileModeE
__ZN3JSC4Yarr13YarrGeneratorILNS0_18YarrJITCompileModeE0EE7compileEPNS_2VMERNS0_13YarrCodeBlockE
__ZN3JSC4Yarr13YarrGeneratorILNS0_18YarrJITCompileModeE0EE13generateEnterEv
__ZN3JSC4Yarr13YarrGeneratorILNS0_18YarrJITCompileModeE0EE10checkInputEv
__ZN3JSC4Yarr13YarrGeneratorILNS0_18YarrJITCompileModeE0EE14generateReturnEv
__ZN3JSC14MacroAssembler6subPtrENS_22AbstractMacroAssemblerINS_12X86AssemblerEE5Imm32ENS_12X86Registers10RegisterIDE
__ZN3JSC4Yarr13YarrGeneratorILNS0_18YarrJITCompileModeE0EE13opCompileBodyEPNS0_18PatternDisjunctionE
__ZN3JSC4Yarr13YarrGeneratorILNS0_18YarrJITCompileModeE0EE20opCompileAlternativeEPNS0_18PatternAlternativeE
__ZN3JSC4Yarr13YarrGeneratorILNS0_18YarrJITCompileModeE0EE19optimizeAlternativeEPNS0_18PatternAlternativeE
__ZN3JSC4Yarr13YarrGeneratorILNS0_18YarrJITCompileModeE0EE30opCompileParenthesesSubpatternEPNS0_11PatternTermE
__ZN3JSC4Yarr13YarrGeneratorILNS0_18YarrJITCompileModeE0EE8generateEv
__ZN3JSC4Yarr13YarrGeneratorILNS0_18YarrJITCompileModeE0EE22jumpIfNoAvailableInputEj
__ZN3JSC14MacroAssembler5add32ENS_22AbstractMacroAssemblerINS_12X86AssemblerEE5Imm32ENS_12X86Registers10RegisterIDE
__ZN3JSC4Yarr13YarrGeneratorILNS0_18YarrJITCompileModeE0EE12generateTermEm
__ZN3JSC4Yarr13YarrGeneratorILNS0_18YarrJITCompileModeE0EE28generatePatternCharacterOnceEm
__ZN3JSC12X86Assembler23X86InstructionFormatter9oneByteOpENS0_15OneByteOpcodeIDEiNS_12X86Registers10RegisterIDES4_ii
__ZN3JSC14MacroAssembler8branch32ENS_23MacroAssemblerX86Common19RelationalConditionENS_12X86Registers10RegisterIDENS_22AbstractMacroAssemblerINS_12X86AssemblerEE5Imm32E
__ZN3JSC4Yarr13YarrGeneratorILNS0_18YarrJITCompileModeE0EE26generateCharacterClassOnceEm
__ZN3JSC4Yarr13YarrGeneratorILNS0_18YarrJITCompileModeE0EE19matchCharacterClassENS_12X86Registers10RegisterIDERNS_22AbstractMacroAssemblerINS_12X86AssemblerEE8JumpListEPKNS0_14CharacterClassE
__ZN3JSC4Yarr13YarrGeneratorILNS0_18YarrJITCompileModeE0EE24matchCharacterClassRangeENS_12X86Registers10RegisterIDERNS_22AbstractMacroAssemblerINS_12X86AssemblerEE8JumpListESA_PKNS0_14CharacterRangeEjPjPKtj
__ZN3JSC4Yarr13YarrGeneratorILNS0_18YarrJITCompileModeE0EE28generateCharacterClassGreedyEm
__ZN3JSC4Yarr13YarrGeneratorILNS0_18YarrJITCompileModeE0EE12atEndOfInputEv
__ZN3JSC14MacroAssembler6addPtrENS_22AbstractMacroAssemblerINS_12X86AssemblerEE5Imm32ENS_12X86Registers10RegisterIDE
__ZN3JSC4Yarr13YarrGeneratorILNS0_18YarrJITCompileModeE0EE9backtrackEv
__ZN3JSC22AbstractMacroAssemblerINS_12X86AssemblerEE8JumpList6appendERKS3_
__ZN3JSC4Yarr13YarrGeneratorILNS0_18YarrJITCompileModeE0EE13backtrackTermEm
__ZN3JSC4Yarr13YarrGeneratorILNS0_18YarrJITCompileModeE0EE29backtrackCharacterClassGreedyEm
__ZN3JSC4Yarr13YarrGeneratorILNS0_18YarrJITCompileModeE0EE17BacktrackingState4linkEPNS_14MacroAssemblerE
__ZN3JSC14MacroAssembler5sub32ENS_22AbstractMacroAssemblerINS_12X86AssemblerEE5Imm32ENS_12X86Registers10RegisterIDE
__ZN3JSC4Yarr13YarrGeneratorILNS0_18YarrJITCompileModeE0EED2Ev
__ZN3JSC18RegExpMatchesArray6createEPNS_9ExecStateEPNS_8JSStringEPNS_6RegExpE11MatchResult
__ZNK3JSC7JSValue3getEPNS_9ExecStateEjRNS_12PropertySlotE
__ZN3JSC18RegExpMatchesArray25getOwnPropertySlotByIndexEPNS_6JSCellEPNS_9ExecStateEjRNS_12PropertySlotE
__ZN3JSC18RegExpMatchesArray18reifyAllPropertiesEPNS_9ExecStateE
__ZN3JSC18RegExpMatchesArray18reifyMatchPropertyEPNS_9ExecStateE
__ZN3JSC6RegExp5matchERNS_2VMERKN3WTF6StringEjRNS3_6VectorIiLm32ENS3_15CrashOnOverflowEEE
__ZN3JSC6RegExp7compileEPNS_2VMENS_4Yarr12YarrCharSizeE
__ZN3JSC4Yarr13YarrGeneratorILNS0_18YarrJITCompileModeE1EE7compileEPNS_2VMERNS0_13YarrCodeBlockE
__ZN3JSC4Yarr13YarrGeneratorILNS0_18YarrJITCompileModeE1EE13generateEnterEv
__ZN3JSC4Yarr13YarrGeneratorILNS0_18YarrJITCompileModeE1EE10checkInputEv
__ZN3JSC4Yarr13YarrGeneratorILNS0_18YarrJITCompileModeE1EE14generateReturnEv
__ZN3JSC4Yarr13YarrGeneratorILNS0_18YarrJITCompileModeE1EE13opCompileBodyEPNS0_18PatternDisjunctionE
__ZN3JSC4Yarr13YarrGeneratorILNS0_18YarrJITCompileModeE1EE20opCompileAlternativeEPNS0_18PatternAlternativeE
__ZN3JSC4Yarr13YarrGeneratorILNS0_18YarrJITCompileModeE1EE19optimizeAlternativeEPNS0_18PatternAlternativeE
__ZN3JSC4Yarr13YarrGeneratorILNS0_18YarrJITCompileModeE1EE30opCompileParenthesesSubpatternEPNS0_11PatternTermE
__ZN3JSC4Yarr13YarrGeneratorILNS0_18YarrJITCompileModeE1EE8generateEv
__ZN3JSC4Yarr13YarrGeneratorILNS0_18YarrJITCompileModeE1EE22jumpIfNoAvailableInputEj
__ZN3JSC4Yarr13YarrGeneratorILNS0_18YarrJITCompileModeE1EE12generateTermEm
__ZN3JSC4Yarr13YarrGeneratorILNS0_18YarrJITCompileModeE1EE28generatePatternCharacterOnceEm
__ZN3JSC4Yarr13YarrGeneratorILNS0_18YarrJITCompileModeE1EE26generateCharacterClassOnceEm
__ZN3JSC4Yarr13YarrGeneratorILNS0_18YarrJITCompileModeE1EE19matchCharacterClassENS_12X86Registers10RegisterIDERNS_22AbstractMacroAssemblerINS_12X86AssemblerEE8JumpListEPKNS0_14CharacterClassE
__ZN3JSC4Yarr13YarrGeneratorILNS0_18YarrJITCompileModeE1EE24matchCharacterClassRangeENS_12X86Registers10RegisterIDERNS_22AbstractMacroAssemblerINS_12X86AssemblerEE8JumpListESA_PKNS0_14CharacterRangeEjPjPKtj
__ZN3JSC4Yarr13YarrGeneratorILNS0_18YarrJITCompileModeE1EE28generateCharacterClassGreedyEm
__ZN3JSC4Yarr13YarrGeneratorILNS0_18YarrJITCompileModeE1EE12atEndOfInputEv
__ZN3JSC4Yarr13YarrGeneratorILNS0_18YarrJITCompileModeE1EE9backtrackEv
__ZN3JSC4Yarr13YarrGeneratorILNS0_18YarrJITCompileModeE1EE13backtrackTermEm
__ZN3JSC4Yarr13YarrGeneratorILNS0_18YarrJITCompileModeE1EE29backtrackCharacterClassGreedyEm
__ZN3JSC4Yarr13YarrGeneratorILNS0_18YarrJITCompileModeE1EE17BacktrackingState4linkEPNS_14MacroAssemblerE
__ZN3JSC4Yarr13YarrGeneratorILNS0_18YarrJITCompileModeE1EED2Ev
__ZN3JSC7JSArray3putEPNS_6JSCellEPNS_9ExecStateENS_12PropertyNameENS_7JSValueERNS_15PutPropertySlotE
__ZNK3JSC8JSString9toBooleanEv
__ZN3JSCL19regExpProtoFuncTestEPNS_9ExecStateE
__ZNK3JSC18EmptyStatementNode16isEmptyStatementEv
__ZN3JSC10ASTBuilder11makeSubNodeERKNS_15JSTokenLocationEPNS_14ExpressionNodeES5_b
__ZN3JSC14ExpressionNode14stripUnaryPlusEv
__ZN3JSC14LogicalNotNode30emitBytecodeInConditionContextERNS_17BytecodeGeneratorEPNS_5LabelES4_NS_15FallThroughModeE
__ZN3JSC14InstanceOfNode12emitBytecodeERNS_17BytecodeGeneratorEPNS_10RegisterIDE
__ZN3JSC17BytecodeGenerator20emitCheckHasInstanceEPNS_10RegisterIDES2_S2_PNS_5LabelE
__ZN3JSC17BytecodeGenerator14emitInstanceOfEPNS_10RegisterIDES2_S2_
__ZN3JSC8JSObject10putByIndexEPNS_6JSCellEPNS_9ExecStateEjNS_7JSValueEb
__ZN3JSC8JSObject28putByIndexBeyondVectorLengthEPNS_9ExecStateEjNS_7JSValueEb
__ZNK3JSC9Structure20needsSlowPutIndexingEv
__ZN3JSC8JSObject23createInitialContiguousERNS_2VMEj
__ZN3JSC9Butterfly22createOrGrowArrayRightEPS0_RNS_2VMEPNS_9StructureEmbmm
__ZN3JSC10ASTBuilder14makeDeleteNodeERKNS_15JSTokenLocationEPNS_14ExpressionNodeEiiijj
__ZN3JSC13DeleteDotNode12emitBytecodeERNS_17BytecodeGeneratorEPNS_10RegisterIDE
__ZN3JSC17BytecodeGenerator14emitDeleteByIdEPNS_10RegisterIDES2_RKNS_10IdentifierE
__ZN3JSC15TypeOfValueNode12emitBytecodeERNS_17BytecodeGeneratorEPNS_10RegisterIDE
__ZN3JSC4Yarr13YarrGeneratorILNS0_18YarrJITCompileModeE0EE19jumpIfCharNotEqualsEtiNS_12X86Registers10RegisterIDE
__ZN3WTF4dtoaEPcdRbRiRj
__ZN3WTF4dtoaILb1ELb0ELb0ELb1EEEvPcdiRbRiRj
__ZN3WTFL4multERNS_6BigIntERKS0_
__ZN3WTF6VectorIjLm16ENS_15CrashOnOverflowEEaSERKS2_
__ZNK3WTF13DecimalNumber28bufferLengthForStringDecimalEv
__ZNK3WTF13DecimalNumber15toStringDecimalEPhj
__ZN3JSC4Yarr13YarrGeneratorILNS0_18YarrJITCompileModeE0EE20generateAssertionBOLEm
__ZN3JSC4Yarr13YarrGeneratorILNS0_18YarrJITCompileModeE0EE17BacktrackingState6linkToENS_22AbstractMacroAssemblerINS_12X86AssemblerEE5LabelEPNS_14MacroAssemblerE
__ZN3JSC22AbstractMacroAssemblerINS_12X86AssemblerEE8JumpList6linkToENS2_5LabelEPS2_
__ZN3JSC8JSObject14deletePropertyEPNS_6JSCellEPNS_9ExecStateENS_12PropertyNameE
__ZN3JSC8JSObject29reifyStaticFunctionsForDeleteEPNS_9ExecStateE
__ZN3JSC9Structure33toUncacheableDictionaryTransitionERNS_2VMEPS0_
__ZN3JSC9Structure22toDictionaryTransitionERNS_2VMEPS0_NS0_14DictionaryKindE
__ZNK3JSC8JSObject21findPropertyHashEntryEPNS_9ExecStateENS_12PropertyNameE
__ZN3JSC7JSScope15resolveWithThisEPNS_9ExecStateERKNS_10IdentifierEPNS_8RegisterEPN3WTF6VectorINS_16ResolveOperationELm0ENS8_15CrashOnOverflowEEE
__ZN3JSC7JSScope30resolveContainingScopeInternalILNS0_10LookupModeE0ELNS0_12ReturnValuesE5EEEPNS_8JSObjectEPNS_9ExecStateERKNS_10IdentifierERNS_12PropertySlotEPN3WTF6VectorINS_16ResolveOperationELm0ENSD_15CrashOnOverflowEEEPNS_18PutToBaseOperationEb
__ZN3JSC18globalFuncParseIntEPNS_9ExecStateE
__ZN3JSC13PropertyTable14findWithStringERKPN3WTF10StringImplE
__ZN3JSC17BytecodeGenerator16emitPutStaticVarERKNS_13ResolveResultERKNS_10IdentifierEPNS_10RegisterIDE
__ZN3JSC9WeakGCMapINSt3__14pairIN3WTF6RefPtrINS3_10StringImplEEEjEENS_9StructureENS_24StructureTransitionTable4HashENS3_10HashTraitsIS7_EEE5gcMapEv
__ZN3JSC17BytecodeGenerator26createArgumentsIfNecessaryEv
__ZN3JSC9Arguments14finishCreationEPNS_9ExecStateE
__ZNK3JSC26UnlinkedFunctionExecutable14parameterCountEv
__ZN3JSC9Arguments7tearOffEPNS_9ExecStateE
__ZN3JSC9Arguments18getOwnPropertySlotEPNS_6JSCellEPNS_9ExecStateENS_12PropertyNameERNS_12PropertySlotE
__ZN3JSC9Arguments25getOwnPropertySlotByIndexEPNS_6JSCellEPNS_9ExecStateEjRNS_12PropertySlotE
__ZN3JSCL18arrayProtoFuncPushEPNS_9ExecStateE
__ZN3JSC7JSArray4pushEPNS_9ExecStateENS_7JSValueE
__ZN3JSC8JSObject24convertUndecidedForValueERNS_2VMENS_7JSValueE
__ZN3JSC10MathObject18getOwnPropertySlotEPNS_6JSCellEPNS_9ExecStateENS_12PropertyNameERNS_12PropertySlotE
__ZN3JSCL19mathProtoFuncRandomEPNS_9ExecStateE
__ZNK3JSC7JSValue16toStringSlowCaseEPNS_9ExecStateE
__ZN3WTF6String24numberToStringECMAScriptEd
__ZN3WTF14numberToStringEdPc
__ZN3WTF17double_conversion23DoubleToStringConverter19EcmaScriptConverterEv
__ZNK3WTF17double_conversion23DoubleToStringConverter10ToShortestEdPNS0_13StringBuilderE
__ZN3WTF17double_conversion8FastDtoaEdNS0_12FastDtoaModeEiNS0_15BufferReferenceIcEEPiS4_
__ZN3WTF17double_conversion16PowersOfTenCache36GetCachedPowerForBinaryExponentRangeEiiPNS0_5DiyFpEPi
__ZN3WTF17double_conversion5DiyFp8MultiplyERKS1_
__ZNK3WTF17double_conversion23DoubleToStringConverter27CreateDecimalRepresentationEPKciiiPNS0_13StringBuilderE
__ZN3JSCL22stringProtoFuncReplaceEPNS_9ExecStateE
__ZN3JSCL24replaceUsingRegExpSearchEPNS_9ExecStateEPNS_8JSStringENS_7JSValueE
__ZN3JSCL23removeUsingRegExpSearchEPNS_9ExecStateEPNS_8JSStringERKN3WTF6StringEPNS_6RegExpE
__ZN3JSC3JIT21emit_op_init_lazy_regEPNS_11InstructionE
__ZN3JSC3JIT20emit_op_convert_thisEPNS_11InstructionE
__ZN3JSC3JIT27emit_op_get_argument_by_valEPNS_11InstructionE
__ZN3JSC14MacroAssembler4moveENS_22AbstractMacroAssemblerINS_12X86AssemblerEE5Imm64ENS_12X86Registers10RegisterIDE
__ZN3JSC14MacroAssembler11shouldBlindENS_22AbstractMacroAssemblerINS_12X86AssemblerEE5Imm64E
__ZN3JSC3JIT13emit_op_jtrueEPNS_11InstructionE
__ZN3JSC20MacroAssemblerX86_648branch64ENS_23MacroAssemblerX86Common19RelationalConditionENS_12X86Registers10RegisterIDENS_22AbstractMacroAssemblerINS_12X86AssemblerEE12TrustedImm64E
__ZN3WTF6VectorIN3JSC9JumpTableELm0ENS_15CrashOnOverflowEE15reserveCapacityEm
__ZN3JSC3JIT18emit_op_new_objectEPNS_11InstructionE
__ZN3JSC3JIT20emitAllocateJSObjectINS_22AbstractMacroAssemblerINS_12X86AssemblerEE13TrustedImmPtrEEEvNS_12X86Registers10RegisterIDET_S7_S7_
__ZN3JSC3JIT28emit_op_get_arguments_lengthEPNS_11InstructionE
__ZN3JSC3JIT18emit_op_is_booleanEPNS_11InstructionE
__ZN3JSC20MacroAssemblerX86_646test64ENS_23MacroAssemblerX86Common15ResultConditionENS_12X86Registers10RegisterIDENS_22AbstractMacroAssemblerINS_12X86AssemblerEE12TrustedImm32ES4_
__ZN3JSC12X86Assembler23X86InstructionFormatter10twoByteOp8ENS0_15TwoByteOpcodeIDENS0_13GroupOpcodeIDENS_12X86Registers10RegisterIDE
__ZN3JSC12X86Assembler23X86InstructionFormatter10twoByteOp8ENS0_15TwoByteOpcodeIDENS_12X86Registers10RegisterIDES4_
__ZN3JSC3JIT14emit_op_jfalseEPNS_11InstructionE
__ZN3JSC3JIT11emit_op_notEPNS_11InstructionE
__ZN3JSC3JIT16emit_op_stricteqEPNS_11InstructionE
__ZN3JSC3JIT17compileOpStrictEqEPNS_11InstructionENS0_21CompileOpStrictEqTypeE
__ZN3JSC3JIT11emit_op_decEPNS_11InstructionE
__ZN3JSC3JIT14emit_op_jnlessEPNS_11InstructionE
__ZN3JSC3JIT19emit_compareAndJumpENS_8OpcodeIDEjjjNS_23MacroAssemblerX86Common19RelationalConditionE
__ZN3JSC3JIT17emit_op_loop_hintEPNS_11InstructionE
__ZN3JSC8Watchdog9isEnabledEv
__ZN3JSC3JIT16emit_op_jeq_nullEPNS_11InstructionE
__ZN3JSC3JIT11emit_op_jmpEPNS_11InstructionE
__ZN3JSC3JIT22compileGetDirectOffsetENS_12X86Registers10RegisterIDES2_S2_S2_NS0_15FinalObjectModeE
__ZN3JSC3JIT17emit_op_new_arrayEPNS_11InstructionE
__ZN3JSC3JIT17emit_op_nstricteqEPNS_11InstructionE
__ZN3JSC3JIT11emit_op_incEPNS_11InstructionE
__ZN3JSC3JIT13emit_op_jlessEPNS_11InstructionE
__ZN3JSC3JIT24emitSlow_op_convert_thisEPNS_11InstructionERPNS_13SlowCaseEntryE
__ZN3JSC3JIT31emitSlow_op_get_argument_by_valEPNS_11InstructionERPNS_13SlowCaseEntryE
__ZN3JSC14MacroAssembler7store64ENS_22AbstractMacroAssemblerINS_12X86AssemblerEE5Imm64ENS3_7AddressE
__ZN3JSC11JITStubCall22callWithValueProfilingEj
__ZN3JSC3JIT17emitSlow_op_jtrueEPNS_11InstructionERPNS_13SlowCaseEntryE
__ZN3JSC3JIT22emitSlow_op_new_objectEPNS_11InstructionERPNS_13SlowCaseEntryE
__ZN3JSC3JIT32emitSlow_op_get_arguments_lengthEPNS_11InstructionERPNS_13SlowCaseEntryE
__ZN3JSC3JIT18emitSlow_op_jfalseEPNS_11InstructionERPNS_13SlowCaseEntryE
__ZN3JSC3JIT15emitSlow_op_notEPNS_11InstructionERPNS_13SlowCaseEntryE
__ZN3JSC3JIT20emitSlow_op_stricteqEPNS_11InstructionERPNS_13SlowCaseEntryE
__ZN3JSC3JIT15emitSlow_op_decEPNS_11InstructionERPNS_13SlowCaseEntryE
__ZN3JSC3JIT18emitSlow_op_jnlessEPNS_11InstructionERPNS_13SlowCaseEntryE
__ZN3JSC3JIT23emit_compareAndJumpSlowEjjjNS_23MacroAssemblerX86Common15DoubleConditionEPFiPPvEbRPNS_13SlowCaseEntryE
__ZN3JSC12X86Assembler23X86InstructionFormatter11twoByteOp64ENS0_15TwoByteOpcodeIDEiNS_12X86Registers10RegisterIDE
__ZN3JSC23MacroAssemblerX86Common12branchDoubleENS0_15DoubleConditionENS_12X86Registers13XMMRegisterIDES3_
__ZN3JSC12X86Assembler23X86InstructionFormatter9twoByteOpENS0_15TwoByteOpcodeIDEiNS_12X86Registers10RegisterIDE
__ZN3JSC3JIT21emitSlow_op_nstricteqEPNS_11InstructionERPNS_13SlowCaseEntryE
__ZN3JSC3JIT15emitSlow_op_incEPNS_11InstructionERPNS_13SlowCaseEntryE
__ZN3JSC3JIT17emitSlow_op_jlessEPNS_11InstructionERPNS_13SlowCaseEntryE
__ZN3WTF9HashTableImNS_12KeyValuePairImmEENS_24KeyValuePairKeyExtractorIS2_EENS_7IntHashImEENS_18HashMapValueTraitsINS_10HashTraitsImEES9_EES9_E16lookupForWritingINS_22IdentityHashTranslatorIS6_EEmEENSt3__14pairIPS2_bEERKT0_
__ZN3WTF9HashTableImNS_12KeyValuePairImmEENS_24KeyValuePairKeyExtractorIS2_EENS_7IntHashImEENS_18HashMapValueTraitsINS_10HashTraitsImEES9_EES9_E3addINS_17HashMapTranslatorISA_S6_EEmmEENS_18HashTableAddResultINS_17HashTableIteratorImS2_S4_S6_SA_S9_EEEERKT0_RKT1_
__ZN3JSC17CompactJITCodeMap7Decoder4readERjS2_
_cti_op_get_by_val_generic
__ZN3JSCL8getByValEPNS_9ExecStateENS_7JSValueES2_NS_16ReturnAddressPtrE
_cti_op_stricteq
_cti_op_jtrue
_cti_op_is_object_or_null
__ZN3JSC8JSString12toThisObjectEPNS_6JSCellEPNS_9ExecStateE
__ZN3JSC12StringObjectC1ERNS_2VMEPNS_9StructureE
__ZNK3JSC6JSCell11toPrimitiveEPNS_9ExecStateENS_22PreferredPrimitiveTypeE
__ZN3JSC8JSObject12defaultValueEPKS0_PNS_9ExecStateENS_22PreferredPrimitiveTypeE
__ZN3JSC9ExecState19frameExtentInternalEv
__ZN3JSCL23stringProtoFuncToStringEPNS_9ExecStateE
__ZN3JSC4Yarr13YarrGeneratorILNS0_18YarrJITCompileModeE0EE17BacktrackingState6appendERKNS_22AbstractMacroAssemblerINS_12X86AssemblerEE12DataLabelPtrE
__ZN3JSC3JIT25emit_op_create_activationEPNS_11InstructionE
__ZN3JSC3JIT20emit_op_new_func_expEPNS_11InstructionE
__ZN3JSC3JIT27emit_op_tear_off_activationEPNS_11InstructionE
_cti_op_push_activation
_cti_op_new_func_exp
_cti_op_tear_off_activation
__ZN3JSCL15tryCacheGetByIDEPNS_9ExecStateEPNS_9CodeBlockENS_16ReturnAddressPtrENS_7JSValueERKNS_10IdentifierERKNS_12PropertySlotEPNS_17StructureStubInfoE
__ZN3JSC3JIT16patchGetByIdSelfEPNS_9CodeBlockEPNS_17StructureStubInfoEPNS_9StructureEiNS_16ReturnAddressPtrE
__ZN3JSC27ctiPatchCallByReturnAddressEPNS_9CodeBlockENS_16ReturnAddressPtrENS_11FunctionPtrE
__ZN3JSC3JIT26privateCompileGetByIdProtoEPNS_17StructureStubInfoEPNS_9StructureES4_RKNS_10IdentifierERKNS_12PropertySlotEiNS_16ReturnAddressPtrEPNS_9ExecStateE
__ZN3JSC30WatchpointsOnStructureStubInfo31ensureReferenceAndAddWatchpointERN3WTF6RefPtrIS0_EEPNS_9CodeBlockEPNS_17StructureStubInfoE
__ZN3JSC19InlineWatchpointSet3addEPNS_10WatchpointE
__ZN3JSC20createJITStubRoutineERKNS_21MacroAssemblerCodeRefERNS_2VMEPKNS_6JSCellEb
__ZN3JSC3JIT7linkForEPNS_10JSFunctionEPNS_9CodeBlockES4_NS_21MacroAssemblerCodePtrEPNS_12CallLinkInfoEPNS_2VMENS_22CodeSpecializationKindE
__ZN3JSC24linkClosureCallGeneratorEPNS_2VME
_cti_op_get_by_id_self_fail
__ZN3JSC3JIT29privateCompileGetByIdSelfListEPNS_17StructureStubInfoEPNS_30PolymorphicAccessStructureListEiPNS_9StructureERKNS_10IdentifierERKNS_12PropertySlotEi
__ZN3JSC3JIT16emit_op_jneq_ptrEPNS_11InstructionE
__ZN3JSC16actualPointerForEPNS_9CodeBlockENS_7Special7PointerE
__ZN3JSC3JIT20emit_op_call_varargsEPNS_11InstructionE
__ZN3JSC3JIT18compileLoadVarargsEPNS_11InstructionE
__ZN3JSC14MacroAssembler7store32ENS_22AbstractMacroAssemblerINS_12X86AssemblerEE5Imm32ENS3_7AddressE
__ZN3JSC3JIT17emit_op_to_numberEPNS_11InstructionE
__ZN3JSC3JIT18emit_op_get_by_valEPNS_11InstructionE
__ZN3JSC3JIT22emitContiguousGetByValEPNS_11InstructionERNS_22AbstractMacroAssemblerINS_12X86AssemblerEE13PatchableJumpEh
__ZN3JSC3JIT24emitSlow_op_call_varargsEPNS_11InstructionERPNS_13SlowCaseEntryE
__ZN3JSC3JIT21emitSlow_op_to_numberEPNS_11InstructionERPNS_13SlowCaseEntryE
__ZN3JSC3JIT22emitSlow_op_get_by_valEPNS_11InstructionERPNS_13SlowCaseEntryE
__ZN3JSC3JIT27stringGetByValStubGeneratorEPNS_2VME
__ZN3JSC13jsAddSlowCaseEPNS_9ExecStateENS_7JSValueES2_
__ZNK3JSC8JSString11toPrimitiveEPNS_9ExecStateENS_22PreferredPrimitiveTypeE
__ZN3WTF10StringImpl4findEPS0_
__ZN3JSCL18arrayProtoFuncSortEPNS_9ExecStateE
__ZN3JSCL15attemptFastSortEPNS_9ExecStateEPNS_8JSObjectENS_7JSValueERNS_8CallDataERNS_8CallTypeE
__ZN3JSC7JSArray4sortEPNS_9ExecStateENS_7JSValueENS_8CallTypeERKNS_8CallDataE
__ZN3JSC7JSArray10sortVectorILh21EEEvPNS_9ExecStateENS_7JSValueENS_8CallTypeERKNS_8CallDataE
__ZN3JSC11Interpreter20prepareForRepeatCallEPNS_18FunctionExecutableEPNS_9ExecStateEPNS_10JSFunctionEiPNS_7JSScopeE
__ZN3WTF7AVLTreeIN3JSC32AVLTreeAbstractorForArrayCompareELj44ENS_18AVLTreeDefaultBSetILj44EEEE6insertEi
__ZN3JSC32AVLTreeAbstractorForArrayCompare15compare_key_keyENS_7JSValueES1_
__ZN3JSC11Interpreter7executeERNS_16CallFrameClosureE
__ZN3WTF7AVLTreeIN3JSC32AVLTreeAbstractorForArrayCompareELj44ENS_18AVLTreeDefaultBSetILj44EEEE8IteratorppEv
__ZN3JSC11Interpreter13endRepeatCallERNS_16CallFrameClosureE
__ZN3JSCL18regExpObjectSourceEPNS_9ExecStateENS_7JSValueENS_12PropertyNameE
__ZN3JSC17RegExpConstructor16getConstructDataEPNS_6JSCellERNS_13ConstructDataE
__ZN3JSCL30constructWithRegExpConstructorEPNS_9ExecStateE
__ZN3JSC15constructRegExpEPNS_9ExecStateEPNS_14JSGlobalObjectERKNS_7ArgListEb
_getHostCallReturnValue
__ZN3JSC4Yarr13YarrGeneratorILNS0_18YarrJITCompileModeE1EE19jumpIfCharNotEqualsEtiNS_12X86Registers10RegisterIDE
__ZN3JSC12jsSubstring8EPNS_2VMERKN3WTF6StringEjj
__ZNK3JSC7JSValue16toNumberSlowCaseEPNS_9ExecStateE
__ZNK3JSC6JSCell8toNumberEPNS_9ExecStateE
__ZNK3JSC8JSString8toNumberEPNS_9ExecStateE
__ZN3JSC10jsToNumberERKN3WTF6StringE
__ZN3WTF6String6numberEj
__ZN3JSCL19arrayProtoFuncSliceEPNS_9ExecStateE
__ZNK3JSC7JSValue9toIntegerEPNS_9ExecStateE
__ZN3JSCL11getPropertyEPNS_9ExecStateEPNS_8JSObjectEj
__ZN3JSC7JSArray9setLengthEPNS_9ExecStateEjb
__ZN3JSC15DateConstructor16getConstructDataEPNS_6JSCellERNS_13ConstructDataE
__ZN3JSCL28constructWithDateConstructorEPNS_9ExecStateE
__ZN3JSC13constructDateEPNS_9ExecStateEPNS_14JSGlobalObjectERKNS_7ArgListE
__ZN3JSC12DateInstanceC1EPNS_9ExecStateEPNS_9StructureE
__ZN3JSC12DateInstance14finishCreationERNS_2VMEd
__ZN3WTF8timeClipEd
__ZN3JSC13DatePrototype18getOwnPropertySlotEPNS_6JSCellEPNS_9ExecStateENS_12PropertyNameERNS_12PropertySlotE
__ZN3JSCL20dateProtoFuncGetTimeEPNS_9ExecStateE
__ZNK3JSC12JSRopeString20resolveRopeSlowCase8EPh
__ZNK3WTF6String8foldCaseEv
__ZN3WTF10StringImpl8foldCaseEv
__ZN3JSC10JSFunction27getOwnNonIndexPropertyNamesEPNS_8JSObjectEPNS_9ExecStateERNS_17PropertyNameArrayENS_15EnumerationModeE
__ZN3JSC10throwErrorEPNS_9ExecStateENS_7JSValueE
__ZN3JSC11Interpreter24addStackTraceIfNecessaryEPNS_9ExecStateENS_7JSValueE
__ZN3JSC11Interpreter13getStackTraceEPNS_2VMERN3WTF6VectorINS_10StackFrameELm0ENS3_15CrashOnOverflowEEEm
__ZN3JSC9ExecState13trueCallFrameENS_10AbstractPCE
__ZN3WTF6VectorIN3JSC10StackFrameELm0ENS_15CrashOnOverflowEE14appendSlowCaseIS2_EEvRKT_
__ZN3WTF6VectorIN3JSC10StackFrameELm0ENS_15CrashOnOverflowEE15reserveCapacityEm
__ZN3JSC6StrongINS_8JSObjectEEC2ERKS2_
__ZN3JSC6StrongINS_14ExecutableBaseEEC2ERKS2_
__ZN3JSC6StrongINS_17UnlinkedCodeBlockEEC2ERKS2_
__ZN3JSC10StackFrameD2Ev
__ZN3JSCL13getCallerInfoEPNS_2VMEPNS_9ExecStateERjRPNS_9CodeBlockE
__ZN3JSC9ExecState15trueCallerFrameEv
__ZN3JSC9CodeBlock14bytecodeOffsetEPNS_9ExecStateENS_16ReturnAddressPtrE
__ZNK3JSC9ExecState10currentVPCEv
__ZN3WTF15RefCountedArrayIN3JSC10StackFrameEEC2ERKNS_6VectorIS2_Lm0ENS_15CrashOnOverflowEEE
__ZN3JSC30isTerminatedExecutionExceptionENS_7JSValueE
__ZN3JSC10StackFrame8toStringEPNS_9ExecStateE
__ZNK3JSC10StackFrame20friendlyFunctionNameEPNS_9ExecStateE
__ZN3JSC24getCalculatedDisplayNameEPNS_9ExecStateEPNS_8JSObjectE
__ZN3JSC10JSFunction21calculatedDisplayNameEPNS_9ExecStateE
__ZN3JSC10JSFunction11displayNameEPNS_9ExecStateE
__ZNK3JSC10StackFrame17friendlySourceURLEv
__ZN3WTF13StringBuilder6appendERKNS_6StringE
__ZN3JSC10JSFunction10nameGetterEPNS_9ExecStateENS_7JSValueENS_12PropertyNameE
__ZN3JSC17UnlinkedCodeBlock32expressionRangeForBytecodeOffsetEjRiS1_S1_RjS2_
__ZN3WTF13StringBuilder12appendNumberEj
__ZN3JSC14ErrorPrototype18getOwnPropertySlotEPNS_6JSCellEPNS_9ExecStateENS_12PropertyNameERNS_12PropertySlotE
__ZN3JSC21getStaticFunctionSlotINS_13ErrorInstanceEEEbPNS_9ExecStateEPKNS_9HashTableEPNS_8JSObjectENS_12PropertyNameERNS_12PropertySlotE
_ctiVMThrowTrampoline
_cti_vm_throw
__ZN3JSC8jitThrowEPNS_2VMEPNS_9ExecStateENS_7JSValueENS_16ReturnAddressPtrE
__ZN3JSC11Interpreter14throwExceptionERPNS_9ExecStateERNS_7JSValueEj
__ZN3JSC9CodeBlock27lineNumberForBytecodeOffsetEj
__ZN3JSC17UnlinkedCodeBlock27lineNumberForBytecodeOffsetEj
__ZN3JSC12addErrorInfoEPNS_9ExecStateEPNS_8JSObjectEiRKNS_10SourceCodeE
__ZN3JSC30isTerminatedExecutionExceptionEPNS_8JSObjectE
__ZN3JSC9CodeBlock24handlerForBytecodeOffsetEj
__ZN3JSC7JSScope10localDepthEv
__ZN3JSC11JSNameScope14finishCreationEPNS_9ExecStateERKNS_10IdentifierENS_7JSValueEj
__ZN3JSC11JSNameScope18getOwnPropertySlotEPNS_6JSCellEPNS_9ExecStateENS_12PropertyNameERNS_12PropertySlotE
__ZN3JSC14symbolTableGetINS_11JSNameScopeEEEbPT_NS_12PropertyNameERNS_12PropertySlotE
__ZN3JSC9Structure27despecifyFunctionTransitionERNS_2VMEPS0_NS_12PropertyNameE
__ZN3JSC9Structure17despecifyFunctionERNS_2VMENS_12PropertyNameE
__ZN3JSCL20arrayProtoFuncSpliceEPNS_9ExecStateE
__ZN3JSC7unshiftILNS_7JSArray14ShiftCountModeE1EEEvPNS_9ExecStateEPNS_8JSObjectEjjjj
__ZN3JSC7JSArray31unshiftCountWithAnyIndexingTypeEPNS_9ExecStateEjj
_cti_op_call_arityCheck
__ZN3JSC12CallLinkInfo6unlinkERNS_2VMERNS_13RepatchBufferE
__ZN3JSC8JSObject55convertInt32ToDoubleOrContiguousWhilePerformingSetIndexERNS_2VMEjNS_7JSValueE
__ZN3JSC6ParserINS_5LexerIhEEE19parseWhileStatementINS_10ASTBuilderEEENT_9StatementERS6_
__ZN3JSC9WhileNode12emitBytecodeERNS_17BytecodeGeneratorEPNS_10RegisterIDE
_cti_vm_lazyLinkClosureCall
__ZN3JSC3JIT12linkSlowCallEPNS_9CodeBlockEPNS_12CallLinkInfoE
__ZN3JSC20virtualCallGeneratorEPNS_2VME
__ZN3JSCL19virtualForGeneratorEPNS_2VMENS_11FunctionPtrES2_PKcNS_22CodeSpecializationKindE
_cti_op_get_by_id_generic
__ZN3JSC3JIT17emit_op_jneq_nullEPNS_11InstructionE
__ZN3JSC3JIT25emit_op_resolve_with_thisEPNS_11InstructionE
__ZN3JSC3JIT23emit_resolve_operationsEPN3WTF6VectorINS_16ResolveOperationELm0ENS1_15CrashOnOverflowEEEPKiS8_
__ZN3JSC3JIT29emitSlow_op_resolve_with_thisEPNS_11InstructionERPNS_13SlowCaseEntryE
__ZN3JSC3JIT32emitSlow_link_resolve_operationsEPN3WTF6VectorINS_16ResolveOperationELm0ENS1_15CrashOnOverflowEEERPNS_13SlowCaseEntryE
_cti_op_get_by_val
__ZN3JSCL22objectProtoFuncValueOfEPNS_9ExecStateE
__ZN3JSCL22arrayProtoFuncToStringEPNS_9ExecStateE
__ZN3JSC22StringRecursionChecker12performCheckEv
__ZN3WTF9HashTableIPN3JSC8JSObjectES3_NS_17IdentityExtractorENS_7PtrHashIS3_EENS_10HashTraitsIS3_EES8_E3addINS_22IdentityHashTranslatorIS6_EES3_S3_EENS_18HashTableAddResultINS_17HashTableIteratorIS3_S3_S4_S6_S8_S8_EEEERKT0_RKT1_
__ZN3WTF10StringImpl20createWithoutCopyingEPKhjNS_27HasTerminatingNullCharacterE
__ZN3JSC14JSStringJoiner6appendERKN3WTF6StringE
__ZN3JSC14JSStringJoiner4joinEPNS_9ExecStateE
__ZN3JSC22StringRecursionCheckerD1Ev
__ZN3WTF7HashSetIPN3JSC8JSObjectENS_7PtrHashIS3_EENS_10HashTraitsIS3_EEE6removeENS_29HashTableConstIteratorAdapterINS_9HashTableIS3_S3_NS_17IdentityExtractorES5_S7_S7_EES3_EE
__ZN3JSC4Yarr13YarrGeneratorILNS0_18YarrJITCompileModeE0EE12storeToFrameENS_22AbstractMacroAssemblerINS_12X86AssemblerEE12TrustedImm32Ej
__ZN3JSC9Structure27despecifyDictionaryFunctionERNS_2VMENS_12PropertyNameE
_cti_op_call_jitCompile
__ZN3JSC4Yarr13YarrGeneratorILNS0_18YarrJITCompileModeE1EE20generateAssertionBOLEm
__ZN3JSC4Yarr13YarrGeneratorILNS0_18YarrJITCompileModeE1EE12storeToFrameENS_22AbstractMacroAssemblerINS_12X86AssemblerEE12TrustedImm32Ej
__ZN3JSC4Yarr13YarrGeneratorILNS0_18YarrJITCompileModeE1EE17BacktrackingState6linkToENS_22AbstractMacroAssemblerINS_12X86AssemblerEE5LabelEPNS_14MacroAssemblerE
__ZN3JSC4Yarr13YarrGeneratorILNS0_18YarrJITCompileModeE0EE20generateAssertionEOLEm
__ZN3JSC4Yarr13YarrGeneratorILNS0_18YarrJITCompileModeE0EE15notAtEndOfInputEv
__ZN3WTF6VectorIN3JSC4Yarr13YarrGeneratorILNS2_18YarrJITCompileModeE0EE17BacktrackingState19ReturnAddressRecordELm4ENS_15CrashOnOverflowEE15reserveCapacityEm
__ZN3JSC17BytecodeGenerator13emitPopScopesEi
__ZN3JSC18EmptyStatementNode12emitBytecodeERNS_17BytecodeGeneratorEPNS_10RegisterIDE
__ZNK3JSC8JSString8toObjectEPNS_9ExecStateEPNS_14JSGlobalObjectE
__ZN3JSCL23arrayConstructorIsArrayEPNS_9ExecStateE
__ZN3JSC23FunctionCallBracketNode12emitBytecodeERNS_17BytecodeGeneratorEPNS_10RegisterIDE
__ZN3JSC22ArrayAllocationProfile18updateIndexingTypeEv
__ZN3JSC30leastUpperBoundOfIndexingTypesEhh
__ZN3JSC15CommonSlowPaths4opInEPNS_9ExecStateENS_7JSValueES3_
__ZN3JSCL29objectProtoFuncHasOwnPropertyEPNS_9ExecStateE
__ZNK3JSC8JSObject14hasOwnPropertyEPNS_9ExecStateENS_12PropertyNameE
__ZN3JSC8JSObject18getOwnPropertySlotEPNS_6JSCellEPNS_9ExecStateENS_12PropertyNameERNS_12PropertySlotE
_cti_stack_check
__ZN3JSC3JIT13emit_op_catchEPNS_11InstructionE
__ZN3JSC3JIT23emit_op_push_name_scopeEPNS_11InstructionE
__ZN3JSC3JIT17emit_op_pop_scopeEPNS_11InstructionE
_cti_op_nstricteq
_cti_op_get_by_id_proto_list
__ZN3JSCL37getPolymorphicAccessStructureListSlotERNS_2VMEPNS_16ScriptExecutableEPNS_17StructureStubInfoERi
__ZN3JSC3JIT30privateCompileGetByIdProtoListEPNS_17StructureStubInfoEPNS_30PolymorphicAccessStructureListEiPNS_9StructureES6_RKNS_10IdentifierERKNS_12PropertySlotEiPNS_9ExecStateE
__ZN3JSC11loadVarargsEPNS_9ExecStateEPNS_7JSStackENS_7JSValueES4_i
__ZN3JSC7JSArray15copyToArgumentsEPNS_9ExecStateES2_j
__ZN3JSCL20arrayProtoFuncConcatEPNS_9ExecStateE
_cti_op_convert_this
__ZN3JSC16jsIsFunctionTypeENS_7JSValueE
__ZNK3JSC13SourceCodeKeyeqERKS0_
__ZN3JSCL20stringProtoFuncMatchEPNS_9ExecStateE
__ZNK3JSC6JSCell18getPrimitiveNumberEPNS_9ExecStateERdRNS_7JSValueE
__ZNK3JSC8JSString18getPrimitiveNumberEPNS_9ExecStateERdRNS_7JSValueE
__ZN3JSCL19jsStrDecimalLiteralIhEEdRPKT_S3_
__ZN3JSC7JSScope30resolveContainingScopeInternalILNS0_10LookupModeE1ELNS0_12ReturnValuesE1EEEPNS_8JSObjectEPNS_9ExecStateERKNS_10IdentifierERNS_12PropertySlotEPN3WTF6VectorINS_16ResolveOperationELm0ENSD_15CrashOnOverflowEEEPNS_18PutToBaseOperationEb
__ZN3JSC16JSCallbackObjectINS_20JSDestructibleObjectEE14getStaticValueEPNS_9ExecStateENS_12PropertyNameE
_JSValueIsObjectOfClass
__ZN3WTF6OwnPtrINS_7HashMapINS_6RefPtrINS_10StringImplEEENS0_I19StaticFunctionEntryEENS_10StringHashENS_10HashTraitsIS4_EENS8_IS6_EEEEED2Ev
__ZN3WTF6OwnPtrINS_7HashMapINS_6RefPtrINS_10StringImplEEENS0_I19StaticFunctionEntryEENS_10StringHashENS_10HashTraitsIS4_EENS8_IS6_EEEEEaSERKNS_10PassOwnPtrISB_EE
__ZN3WTF10PassOwnPtrINS_7HashMapINS_6RefPtrINS_10StringImplEEENS_6OwnPtrI19StaticFunctionEntryEENS_10StringHashENS_10HashTraitsIS4_EENS9_IS7_EEEEED2Ev
_JSObjectMakeArray
__ZN3WTF9HashTableIjNS_12KeyValuePairIjPN3JSC16FunctionBodyNodeEEENS_24KeyValuePairKeyExtractorIS5_EENS_7IntHashIjEENS_18HashMapValueTraitsINS_29UnsignedWithZeroKeyHashTraitsIjEENS_10HashTraitsIS4_EEEESC_E3addINS_17HashMapTranslatorISF_S9_EEjS4_EENS_18HashTableAddResultINS_17HashTableIteratorIjS5_S7_S9_SF_SC_EEEERKT0_RKT1_
__ZN3JSC17BytecodeGenerator19emitLazyNewFunctionEPNS_10RegisterIDEPNS_16FunctionBodyNodeE
__ZN3WTF9HashTableIPN3JSC16FunctionBodyNodeENS_12KeyValuePairIS3_jEENS_24KeyValuePairKeyExtractorIS5_EENS_7PtrHashIS3_EENS_18HashMapValueTraitsINS_10HashTraitsIS3_EENSB_IjEEEESC_E16lookupForWritingINS_22IdentityHashTranslatorIS9_EES3_EENSt3__14pairIPS5_bEERKT0_
__ZN3WTF9HashTableIPN3JSC16FunctionBodyNodeENS_12KeyValuePairIS3_jEENS_24KeyValuePairKeyExtractorIS5_EENS_7PtrHashIS3_EENS_18HashMapValueTraitsINS_10HashTraitsIS3_EENSB_IjEEEESC_E3addINS_17HashMapTranslatorISE_S9_EES3_jEENS_18HashTableAddResultINS_17HashTableIteratorIS3_S5_S7_S9_SE_SC_EEEERKT0_RKT1_
__ZN3JSC9WeakGCMapIPvNS_8JSObjectEN3WTF7PtrHashIS1_EENS3_10HashTraitsIS1_EEE5gcMapEv
__ZN3WTF9HashTableINS_6RefPtrINS_10StringImplEEENS_12KeyValuePairIS3_NS_6OwnPtrI19StaticFunctionEntryEEEENS_24KeyValuePairKeyExtractorIS8_EENS_10StringHashENS_22KeyValuePairHashTraitsINS_10HashTraitsIS3_EENSD_IS7_EEEESE_E3addINS_17HashMapTranslatorISG_SB_EEPS2_NS_10PassOwnPtrIS6_EEEENS_18HashTableAddResultINS_17HashTableIteratorIS3_S8_SA_SB_SG_SE_EEEERKT0_RKT1_
__ZN3WTF9HashTableINS_6RefPtrINS_10StringImplEEENS_12KeyValuePairIS3_NS_6OwnPtrI19StaticFunctionEntryEEEENS_24KeyValuePairKeyExtractorIS8_EENS_10StringHashENS_22KeyValuePairHashTraitsINS_10HashTraitsIS3_EENSD_IS7_EEEESE_E3addINS_17HashMapTranslatorISG_SB_EES3_NS_10PassOwnPtrIS6_EEEENS_18HashTableAddResultINS_17HashTableIteratorIS3_S8_SA_SB_SG_SE_EEEERKT0_RKT1_
__ZN3WTF9HashTableINS_6RefPtrINS_10StringImplEEENS_12KeyValuePairIS3_NS_6OwnPtrI19StaticFunctionEntryEEEENS_24KeyValuePairKeyExtractorIS8_EENS_10StringHashENS_22KeyValuePairHashTraitsINS_10HashTraitsIS3_EENSD_IS7_EEEESE_E6lookupINS_17HashMapTranslatorISG_SB_EEPS2_EEPS8_RKT0_
__ZN3WTF9HashTableINS_6RefPtrINS_10StringImplEEENS_12KeyValuePairIS3_NS_6OwnPtrI19StaticFunctionEntryEEEENS_24KeyValuePairKeyExtractorIS8_EENS_10StringHashENS_22KeyValuePairHashTraitsINS_10HashTraitsIS3_EENSD_IS7_EEEESE_E6rehashEi
__ZN3WTF9HashTableINS_6RefPtrINS_10StringImplEEENS_12KeyValuePairIS3_NS_6OwnPtrI19StaticFunctionEntryEEEENS_24KeyValuePairKeyExtractorIS8_EENS_10StringHashENS_22KeyValuePairHashTraitsINS_10HashTraitsIS3_EENSD_IS7_EEEESE_E8reinsertERS8_
__ZN3JSC16JSCallbackObjectINS_20JSDestructibleObjectEE20staticFunctionGetterEPNS_9ExecStateENS_7JSValueENS_12PropertyNameE
__ZN3JSC18JSCallbackFunction6createEPNS_9ExecStateEPNS_14JSGlobalObjectEPFPK13OpaqueJSValuePK15OpaqueJSContextPS5_SB_mPKS7_PS7_ERKN3WTF6StringE
__ZN3JSC18JSCallbackFunction11getCallDataEPNS_6JSCellERNS_8CallDataE
__ZN3JSC18JSCallbackFunction4callEPNS_9ExecStateE
_JSValueToBoolean
_JSValueProtect
_JSValueMakeUndefined
__ZN3JSC9Structure26flattenDictionaryStructureERNS_2VMEPNS_8JSObjectE
__ZN3WTF13hashTableSwapIN3JSC13SourceCodeKeyENS1_15SourceCodeValueEEEvRNS_12KeyValuePairIT_T0_EES8_
__ZNK3WTF6String5upperEv
__ZN3WTF10StringImpl5upperEv
__ZNK3JSC11Interpreter18retrieveLastCallerEPNS_9ExecStateERiRlRN3WTF6StringERNS_7JSValueE
__ZN3JSC14SourceProvider5getIDEv
__ZN3JSC10JSONObject18getOwnPropertySlotEPNS_6JSCellEPNS_9ExecStateENS_12PropertyNameERNS_12PropertySlotE
__ZN3JSCL18JSONProtoFuncParseEPNS_9ExecStateE
__ZN3JSC13LiteralParserIhE5Lexer4nextEv
__ZN3JSC13LiteralParserIhE5Lexer3lexILNS_10ParserModeE0EEENS_9TokenTypeERNS_18LiteralParserTokenIhEE
__ZN3JSC4Yarr13YarrGeneratorILNS0_18YarrJITCompileModeE0EE17BacktrackingState24takeBacktracksToJumpListERNS_22AbstractMacroAssemblerINS_12X86AssemblerEE8JumpListEPNS_14MacroAssemblerE
__ZN3JSC4Yarr13YarrGeneratorILNS0_18YarrJITCompileModeE1EE17BacktrackingState6appendERKNS_22AbstractMacroAssemblerINS_12X86AssemblerEE12DataLabelPtrE
__ZN3JSC4Yarr13YarrGeneratorILNS0_18YarrJITCompileModeE1EE17BacktrackingState24takeBacktracksToJumpListERNS_22AbstractMacroAssemblerINS_12X86AssemblerEE8JumpListEPNS_14MacroAssemblerE
_JSValueMakeFromJSONString
__ZN3JSC10ASTBuilder11makeModNodeERKNS_15JSTokenLocationEPNS_14ExpressionNodeES5_b
__ZN3JSC10ASTBuilder12makeMultNodeERKNS_15JSTokenLocationEPNS_14ExpressionNodeES5_b
__ZN3JSC15DateConstructor18getOwnPropertySlotEPNS_6JSCellEPNS_9ExecStateENS_12PropertyNameERNS_12PropertySlotE
__ZN3JSCL7dateNowEPNS_9ExecStateE
__ZN3JSC24UnlinkedProgramCodeBlock22addFunctionDeclarationERNS_2VMERKNS_10IdentifierEPNS_26UnlinkedFunctionExecutableE
__ZN3WTF6VectorINSt3__14pairIN3JSC10IdentifierENS3_12WriteBarrierINS3_26UnlinkedFunctionExecutableEEEEELm0ENS_15CrashOnOverflowEE15reserveCapacityEm
__ZN3JSC8JSObject12removeDirectERNS_2VMENS_12PropertyNameE
__ZN3JSC26UnlinkedFunctionExecutable4linkERNS_2VMERKNS_10SourceCodeEmm
__ZN3JSC16SymbolTableEntry14attemptToWatchEv
__ZN3JSC16SymbolTableEntry8copySlowERKS0_
__ZN3JSC16SymbolTableEntry16freeFatEntrySlowEv
__ZN3JSC10ASTBuilder13makeBitOrNodeERKNS_15JSTokenLocationEPNS_14ExpressionNodeES5_b
__ZN3JSC21globalFuncProtoSetterEPNS_9ExecStateE
__ZN3JSC8JSObject16allowsAccessFromEPNS_9ExecStateE
__ZN3JSC8JSObject26setPrototypeWithCycleCheckERNS_2VMENS_7JSValueE
__ZN3JSC19floorThunkGeneratorEPNS_2VME
__ZN3JSC14JSInterfaceJIT14emitLoadDoubleEjNS_12X86Registers13XMMRegisterIDENS1_10RegisterIDE
__ZN3JSC23MacroAssemblerX86Common10loadDoubleEPKvNS_12X86Registers13XMMRegisterIDE
__ZN3JSC12X86Assembler2jpEv
__ZN3JSC12X86Assembler2jeEv
__ZN3JSC23MacroAssemblerX86Common27branchTruncateDoubleToInt32ENS_12X86Registers13XMMRegisterIDENS1_10RegisterIDENS0_18BranchTruncateTypeE
__ZN3JSC19SpecializedThunkJIT18callDoubleToDoubleENS_11FunctionPtrE
__ZN3WTF6VectorINSt3__14pairIN3JSC22AbstractMacroAssemblerINS3_12X86AssemblerEE4CallENS3_11FunctionPtrEEELm0ENS_15CrashOnOverflowEE15reserveCapacityEm
__ZN3JSC23MacroAssemblerX86Common26branchConvertDoubleToInt32ENS_12X86Registers13XMMRegisterIDENS1_10RegisterIDERNS_22AbstractMacroAssemblerINS_12X86AssemblerEE8JumpListES2_b
__ZN3JSC12X86Assembler3jneEv
__ZN3JSC19SpecializedThunkJIT12returnDoubleENS_12X86Registers13XMMRegisterIDE
__ZN3WTF9HashTableIPN3JSC6JSCellENS_12KeyValuePairIS3_jEENS_24KeyValuePairKeyExtractorIS5_EENS_7PtrHashIS3_EENS_18HashMapValueTraitsINS_10HashTraitsIS3_EENSB_IjEEEESC_E16lookupForWritingINS_22IdentityHashTranslatorIS9_EES3_EENSt3__14pairIPS5_bEERKT0_
__ZN3WTF9HashTableIPN3JSC6JSCellENS_12KeyValuePairIS3_jEENS_24KeyValuePairKeyExtractorIS5_EENS_7PtrHashIS3_EENS_18HashMapValueTraitsINS_10HashTraitsIS3_EENSB_IjEEEESC_E3addINS_17HashMapTranslatorISE_S9_EES3_jEENS_18HashTableAddResultINS_17HashTableIteratorIS3_S5_S7_S9_SE_SC_EEEERKT0_RKT1_
_JSValueMakeNull
__ZN3JSC17DeleteBracketNode12emitBytecodeERNS_17BytecodeGeneratorEPNS_10RegisterIDE
__ZN3JSC17BytecodeGenerator15emitDeleteByValEPNS_10RegisterIDES2_S2_
__ZN3WTF17double_conversion16PowersOfTenCache32GetCachedPowerForDecimalExponentEiPNS0_5DiyFpEPi
__ZN3WTF6VectorIPN3JSC9StructureELm8ENS_15CrashOnOverflowEE15reserveCapacityEm
__ZN3JSCL22JSONProtoFuncStringifyEPNS_9ExecStateE
__ZN3JSC11StringifierC2EPNS_9ExecStateERKNS_5LocalINS_7UnknownEEES7_
__ZN3JSCL20unwrapBoxedPrimitiveEPNS_9ExecStateENS_7JSValueE
__ZN3JSC11Stringifier9stringifyENS_6HandleINS_7UnknownEEE
__ZN3JSC11Stringifier22appendStringifiedValueERN3WTF13StringBuilderENS_7JSValueEPNS_8JSObjectERKNS_27PropertyNameForFunctionCallE
__ZN3JSC11Stringifier6toJSONENS_7JSValueERKNS_27PropertyNameForFunctionCallE
__ZNK3JSC6JSCell9getStringEPNS_9ExecStateERN3WTF6StringE
__ZN3JSC11Stringifier6Holder18appendNextPropertyERS0_RN3WTF13StringBuilderE
__ZN3WTF6RefPtrIN3JSC21PropertyNameArrayDataEEaSERKNS_10PassRefPtrIS2_EE
__ZN3JSC11Stringifier6indentEv
__ZN3JSC11Stringifier18appendQuotedStringERN3WTF13StringBuilderERKNS1_6StringE
__ZN3WTF13StringBuilder6resizeEj
__ZN3JSC11StringifierD2Ev
_JSValueCreateJSONString
__ZN3JSC13JSONStringifyEPNS_9ExecStateENS_7JSValueEj
__ZNK3JSC6JSCell9getStringEPNS_9ExecStateE
__ZN3JSCL18arrayProtoFuncJoinEPNS_9ExecStateE
__ZN3JSC11CopiedSpace21tryReallocateOversizeEPPvmm
__ZN3JSC11CopiedSpace19tryAllocateOversizeEmPPv
__ZN3WTF9HashTableIPN3JSC11CopiedBlockES3_NS_17IdentityExtractorENS_7PtrHashIS3_EENS_10HashTraitsIS3_EES8_E16lookupForWritingINS_22IdentityHashTranslatorIS6_EES3_EENSt3__14pairIPS3_bEERKT0_
__ZN3JSC3JIT15emit_op_resolveEPNS_11InstructionE
__ZN3JSC3JIT17emit_op_put_by_idEPNS_11InstructionE
__ZN3JSC20MacroAssemblerX86_6429store64WithAddressOffsetPatchENS_12X86Registers10RegisterIDENS_22AbstractMacroAssemblerINS_12X86AssemblerEE7AddressE
__ZN3JSC12X86Assembler23X86InstructionFormatter18oneByteOp64_disp32ENS0_15OneByteOpcodeIDEiNS_12X86Registers10RegisterIDEi
__ZN3JSC3JIT17emit_op_constructEPNS_11InstructionE
__ZN3JSC3JIT17emit_op_del_by_idEPNS_11InstructionE
__ZN3JSC3JIT19emitSlow_op_resolveEPNS_11InstructionERPNS_13SlowCaseEntryE
__ZN3JSC3JIT21emitSlow_op_put_by_idEPNS_11InstructionERPNS_13SlowCaseEntryE
__ZN3JSC3JIT21emitSlow_op_constructEPNS_11InstructionERPNS_13SlowCaseEntryE
__ZN3JSC22linkConstructGeneratorEPNS_2VME
__ZN3JSC3JIT33privateCompilePatchGetArrayLengthENS_16ReturnAddressPtrE
_cti_op_get_by_id_array_fail
__ZN3JSC11CopiedSpace19tryAllocateSlowCaseEmPPv
_cti_op_del_by_val
__ZN3JSC9Structure24removePropertyTransitionERNS_2VMEPS0_NS_12PropertyNameERi
__ZN3JSC9Structure6removeENS_12PropertyNameE
__ZN3JSC13PropertyTable16addDeletedOffsetEi
_cti_op_new_array
_cti_op_put_by_id_direct
__ZN3JSCL15tryCachePutByIDEPNS_9ExecStateEPNS_9CodeBlockENS_16ReturnAddressPtrENS_7JSValueERKNS_15PutPropertySlotEPNS_17StructureStubInfoEb
__ZN3JSC3JIT31privateCompilePutByIdTransitionEPNS_17StructureStubInfoEPNS_9StructureES4_iPNS_14StructureChainENS_16ReturnAddressPtrEb
__ZN3JSC3JIT27addStructureTransitionCheckEPNS_6JSCellEPNS_9StructureEPNS_17StructureStubInfoERNS_22AbstractMacroAssemblerINS_12X86AssemblerEE8JumpListENS_12X86Registers10RegisterIDE
__ZN3JSC20MacroAssemblerX86_6417tailRecursiveCallEv
__ZN3JSC20createJITStubRoutineERKNS_21MacroAssemblerCodeRefERNS_2VMEPKNS_6JSCellEbPS5_
_cti_has_property
_cti_op_resolve
__ZN3JSC4Yarr13YarrGeneratorILNS0_18YarrJITCompileModeE0EE30generatePatternCharacterGreedyEm
__ZN3JSC4Yarr13YarrGeneratorILNS0_18YarrJITCompileModeE0EE31backtrackPatternCharacterGreedyEm
__ZN3JSC10ASTBuilder18makeBitwiseNotNodeERKNS_15JSTokenLocationEPNS_14ExpressionNodeE
__ZN3JSC6ParserINS_5LexerIhEEE19parseThrowStatementINS_10ASTBuilderEEENT_9StatementERS6_
__ZN3JSC10ASTBuilder14makeBitAndNodeERKNS_15JSTokenLocationEPNS_14ExpressionNodeES5_b
__ZN3JSC12ContinueNode12emitBytecodeERNS_17BytecodeGeneratorEPNS_10RegisterIDE
__ZN3JSC21ReadModifyResolveNode12emitBytecodeERNS_17BytecodeGeneratorEPNS_10RegisterIDE
__ZN3JSC14BitwiseNotNode12emitBytecodeERNS_17BytecodeGeneratorEPNS_10RegisterIDE
__ZN3JSC17ReadModifyDotNode12emitBytecodeERNS_17BytecodeGeneratorEPNS_10RegisterIDE
__ZN3JSC9ThrowNode12emitBytecodeERNS_17BytecodeGeneratorEPNS_10RegisterIDE
__ZN3JSC4Yarr11byteCompileERNS0_11YarrPatternEPN3WTF20BumpPointerAllocatorE
__ZN3JSC4Yarr12ByteCompiler7compileEPN3WTF20BumpPointerAllocatorE
__ZN3JSC4Yarr12ByteCompiler10regexBeginEjjb
__ZN3WTF6VectorIN3JSC4Yarr8ByteTermELm0ENS_15CrashOnOverflowEE15reserveCapacityEm
__ZN3JSC4Yarr12ByteCompiler15emitDisjunctionEPNS0_18PatternDisjunctionEjj
__ZN3JSC4Yarr12ByteCompiler10checkInputEj
__ZN3JSC4Yarr12ByteCompiler20atomPatternCharacterEtjjN3WTF7CheckedIjNS2_15CrashOnOverflowEEENS0_14QuantifierTypeE
__ZN3JSC4Yarr12ByteCompiler18atomCharacterClassEPNS0_14CharacterClassEbjjN3WTF7CheckedIjNS4_15CrashOnOverflowEEENS0_14QuantifierTypeE
__ZN3JSC4Yarr12ByteCompiler24atomParenthesesOnceBeginEjbjjj
__ZN3WTF6VectorIN3JSC4Yarr12ByteCompiler21ParenthesesStackEntryELm0ENS_15CrashOnOverflowEE15reserveCapacityEm
__ZN3JSC4Yarr12ByteCompiler22atomParenthesesOnceEndEijN3WTF7CheckedIjNS2_15CrashOnOverflowEEENS0_14QuantifierTypeE
__ZN3JSC4Yarr12ByteCompiler16closeAlternativeEi
__ZN3JSC4Yarr12ByteCompiler30atomParenthesesSubpatternBeginEjbjjj
__ZN3JSC4Yarr12ByteCompiler28atomParenthesesSubpatternEndEjijN3WTF7CheckedIjNS2_15CrashOnOverflowEEENS0_14QuantifierTypeEj
__ZN3WTF6VectorINS_6OwnPtrIN3JSC4Yarr15ByteDisjunctionEEELm0ENS_15CrashOnOverflowEE14expandCapacityEm
__ZN3JSC4Yarr12ByteCompiler12assertionEOLEj
__ZN3JSC4Yarr12ByteCompiler20closeBodyAlternativeEv
__ZN3WTF6VectorIN3JSC4Yarr8ByteTermELm0ENS_15CrashOnOverflowEE14shrinkCapacityEm
__ZN3WTF6VectorINS_6OwnPtrIN3JSC4Yarr15ByteDisjunctionEEELm0ENS_15CrashOnOverflowEE14shrinkCapacityEm
__ZN3WTF6VectorINS_6OwnPtrIN3JSC4Yarr14CharacterClassEEELm0ENS_15CrashOnOverflowEE14shrinkCapacityEm
__ZN3JSC4Yarr12ByteCompilerD2Ev
__ZN3JSC4Yarr9interpretEPNS0_15BytecodePatternERKN3WTF6StringEjPj
__ZN3JSC4Yarr11InterpreterIhE9interpretEv
__ZN3JSC4Yarr11InterpreterIhE16matchDisjunctionEPNS0_15ByteDisjunctionEPNS2_18DisjunctionContextEb
__ZN3JSC4Yarr11InterpreterIhE19matchCharacterClassERNS0_8ByteTermEPNS2_18DisjunctionContextE
__ZN3JSC4Yarr11InterpreterIhE18testCharacterClassEPNS0_14CharacterClassEi
__ZN3JSC4Yarr11InterpreterIhE16matchParenthesesERNS0_8ByteTermEPNS2_18DisjunctionContextE
__ZN3JSC4Yarr11InterpreterIhE34allocParenthesesDisjunctionContextEPNS0_15ByteDisjunctionEPjRNS0_8ByteTermE
__ZN3JSC4Yarr11InterpreterIhE17matchAssertionEOLERNS0_8ByteTermE
__ZN3JSCL24stringProtoFuncSubstringEPNS_9ExecStateE
__ZN3JSC4Yarr13YarrGeneratorILNS0_18YarrJITCompileModeE0EE27generateCharacterClassFixedEm
__ZN3JSC18RegExpMatchesArray18getOwnPropertySlotEPNS_6JSCellEPNS_9ExecStateENS_12PropertyNameERNS_12PropertySlotE
__ZN3JSC4Yarr13YarrGeneratorILNS0_18YarrJITCompileModeE1EE30generatePatternCharacterGreedyEm
__ZN3JSC4Yarr13YarrGeneratorILNS0_18YarrJITCompileModeE1EE31backtrackPatternCharacterGreedyEm
__ZN3JSCL28substituteBackreferencesSlowIhEEN3WTF6StringERKS2_S4_PKiPNS_6RegExpEm
__ZN3WTF6VectorIhLm0ENS_15CrashOnOverflowEE6appendIhEEvPKT_m
__ZN3WTF6VectorIhLm0ENS_15CrashOnOverflowEE14shrinkCapacityEm
__ZN3JSC4Yarr13YarrGeneratorILNS0_18YarrJITCompileModeE1EE20generateAssertionEOLEm
__ZN3JSC4Yarr13YarrGeneratorILNS0_18YarrJITCompileModeE1EE15notAtEndOfInputEv
__ZNK3JSC15DotAccessorNode17isDotAccessorNodeEv
__ZN3JSC10PrefixNode7emitDotERNS_17BytecodeGeneratorEPNS_10RegisterIDE
__ZN3JSC7JSValue13equalSlowCaseEPNS_9ExecStateES0_S0_
__ZN3WTF9HashTableIPN3JSC8JSObjectES3_NS_17IdentityExtractorENS_7PtrHashIS3_EENS_10HashTraitsIS3_EES8_E16lookupForWritingINS_22IdentityHashTranslatorIS6_EES3_EENSt3__14pairIPS3_bEERKT0_
__ZN3JSC8JSString8getIndexEPNS_9ExecStateEj
__ZN3JSC3JIT18emit_op_new_regexpEPNS_11InstructionE
_cti_op_new_regexp
__ZN3JSC3JIT24emitArrayStorageGetByValEPNS_11InstructionERNS_22AbstractMacroAssemblerINS_12X86AssemblerEE13PatchableJumpE
__ZN3JSC3JIT10emit_op_eqEPNS_11InstructionE
__ZN3JSC3JIT14emit_op_bitxorEPNS_11InstructionE
__ZN3JSC3JIT14emit_op_bitandEPNS_11InstructionE
__ZN3JSC3JIT13emit_op_bitorEPNS_11InstructionE
__ZN3JSC3JIT11emit_op_addEPNS_11InstructionE
__ZN3JSC3JIT13emit_op_throwEPNS_11InstructionE
__ZN3JSC3JIT11emit_op_subEPNS_11InstructionE
__ZN3JSC3JIT20compileBinaryArithOpENS_8OpcodeIDEjjjNS_12OperandTypesE
__ZN3JSC3JIT14emitSlow_op_eqEPNS_11InstructionERPNS_13SlowCaseEntryE
__ZN3JSC3JIT18emitSlow_op_bitxorEPNS_11InstructionERPNS_13SlowCaseEntryE
__ZN3JSC3JIT18emitSlow_op_bitandEPNS_11InstructionERPNS_13SlowCaseEntryE
__ZN3JSC3JIT17emitSlow_op_bitorEPNS_11InstructionERPNS_13SlowCaseEntryE
__ZN3JSC3JIT15emitSlow_op_addEPNS_11InstructionERPNS_13SlowCaseEntryE
__ZN3JSC3JIT15emitSlow_op_subEPNS_11InstructionERPNS_13SlowCaseEntryE
__ZN3JSC3JIT28compileBinaryArithOpSlowCaseENS_8OpcodeIDERPNS_13SlowCaseEntryEjjjNS_12OperandTypesEbb
_cti_op_eq
_cti_op_in
_cti_op_put_by_id
__ZN3JSC3JIT19patchPutByIdReplaceEPNS_9CodeBlockEPNS_17StructureStubInfoEPNS_9StructureEiNS_16ReturnAddressPtrEb
_cti_op_construct_NotJSConstruct
__ZN3JSC18FunctionExecutable22jitCompileForConstructEPNS_9ExecStateE
__ZN3JSC3DFG32mightCompileFunctionForConstructEPNS_9CodeBlockE
__ZN3JSC3JIT18emit_op_get_calleeEPNS_11InstructionE
__ZN3JSC3JIT19emit_op_create_thisEPNS_11InstructionE
__ZN3JSC3JIT20emitAllocateJSObjectINS_12X86Registers10RegisterIDEEEvS3_T_S3_S3_
__ZN3JSC3JIT23emitSlow_op_create_thisEPNS_11InstructionERPNS_13SlowCaseEntryE
__ZN3JSC3JIT21emitSlow_op_loop_hintEPNS_11InstructionERPNS_13SlowCaseEntryE
_cti_vm_lazyLinkConstruct
__ZN3WTF16binarySearchImplIN3JSC15RareCaseProfileEiNS_15SegmentedVectorIS2_Lm8ELm32EEEPFiPS2_ELNS_16BinarySearchModeE1EEEPT_RT1_mT0_RKT2_
__ZN3JSC32getRareCaseProfileBytecodeOffsetEPNS_15RareCaseProfileE
__ZN3JSC20MacroAssemblerX86_645sub32ENS_22AbstractMacroAssemblerINS_12X86AssemblerEE12TrustedImm32ENS3_15AbsoluteAddressE
__ZN3JSC25virtualConstructGeneratorEPNS_2VME
_cti_op_put_by_id_fail
__ZN3JSC4Yarr13YarrGeneratorILNS0_18YarrJITCompileModeE0EE31generateCharacterClassNonGreedyEm
__ZN3JSC4Yarr13YarrGeneratorILNS0_18YarrJITCompileModeE0EE32backtrackCharacterClassNonGreedyEm
__ZN3JSC4Yarr13YarrGeneratorILNS0_18YarrJITCompileModeE1EE31generateCharacterClassNonGreedyEm
__ZN3JSC4Yarr13YarrGeneratorILNS0_18YarrJITCompileModeE1EE32backtrackCharacterClassNonGreedyEm
_cti_op_resolve_with_this
__ZN3JSC17JITStubRoutineSet3addEPNS_21GCAwareJITStubRoutineE
__ZN3WTF6VectorIPN3JSC21GCAwareJITStubRoutineELm0ENS_15CrashOnOverflowEE14expandCapacityEm
__ZN3WTF9HashTableImNS_12KeyValuePairImPN3JSC21GCAwareJITStubRoutineEEENS_24KeyValuePairKeyExtractorIS5_EENS_7IntHashImEENS_18HashMapValueTraitsINS_10HashTraitsImEENSB_IS4_EEEESC_E16lookupForWritingINS_22IdentityHashTranslatorIS9_EEmEENSt3__14pairIPS5_bEERKT0_
__ZN3WTF9HashTableImNS_12KeyValuePairImPN3JSC21GCAwareJITStubRoutineEEENS_24KeyValuePairKeyExtractorIS5_EENS_7IntHashImEENS_18HashMapValueTraitsINS_10HashTraitsImEENSB_IS4_EEEESC_E3addINS_17HashMapTranslatorISE_S9_EEmS4_EENS_18HashTableAddResultINS_17HashTableIteratorImS5_S7_S9_SE_SC_EEEERKT0_RKT1_
_cti_op_get_by_id_custom_stub
_cti_op_get_by_val_string
_cti_optimize
__ZN3JSC9CodeBlock35checkIfOptimizationThresholdReachedEv
__ZN3JSC17FunctionCodeBlock11replacementEv
__ZN3JSC9CodeBlock17shouldOptimizeNowEv
__ZN3JSC9CodeBlock25updateAllArrayPredictionsENS_19OperationInProgressE
__ZN3JSC17FunctionCodeBlock16compileOptimizedEPNS_9ExecStateEPNS_7JSScopeEj
__ZN3JSC18FunctionExecutable23compileOptimizedForCallEPNS_9ExecStateEPNS_7JSScopeEj
__ZN3JSC9CodeBlockC2ENS0_18CopyParsedBlockTagERS0_
__ZN3WTF6VectorINS0_IN3JSC16ResolveOperationELm0ENS_15CrashOnOverflowEEELm0ES3_EC2ERKS5_
__ZN3WTF6VectorIN3JSC11HandlerInfoELm0ENS_15CrashOnOverflowEEaSERKS4_
__ZN3WTF6VectorINS0_IN3JSC7JSValueELm0ENS_15CrashOnOverflowEEELm0ES3_EaSERKS5_
__ZN3WTF6VectorIN3JSC15SimpleJumpTableELm0ENS_15CrashOnOverflowEEaSERKS4_
__ZN3WTF6VectorIN3JSC15StringJumpTableELm0ENS_15CrashOnOverflowEEaSERKS4_
__ZN3JSC3DFG18tryCompileFunctionEPNS_9ExecStateEPNS_9CodeBlockERNS_7JITCodeERNS_21MacroAssemblerCodePtrEj
__ZN3JSC3DFG7compileENS0_11CompileModeEPNS_9ExecStateEPNS_9CodeBlockERNS_7JITCodeEPNS_21MacroAssemblerCodePtrEj
__ZN3JSC11OptionRange9isInRangeEj
__ZN3WTF6VectorIN3JSC7JSValueELm8ENS_15CrashOnOverflowEE4fillERKS2_m
__ZN3WTF6VectorIN3JSC7JSValueELm16ENS_15CrashOnOverflowEE4fillERKS2_m
__ZN3JSC3DFG5GraphC1ERNS_2VMEPNS_9CodeBlockEjRKNS_8OperandsINS_7JSValueENS_18OperandValueTraitsIS7_EEEE
__ZN3JSC3DFG10DominatorsC1Ev
__ZN3JSC8OperandsINS_7JSValueENS_18OperandValueTraitsIS1_EEEC2ERKS4_
__ZN3JSC3DFG5parseEPNS_9ExecStateERNS0_5GraphE
__ZN3JSC3DFG14ByteCodeParserC2ERNS0_5GraphE
__ZN3JSC3DFG14ByteCodeParser5parseEv
__ZN3JSC3DFG14ByteCodeParser16InlineStackEntryC2EPS1_PNS_9CodeBlockES5_jPNS_10JSFunctionENS_15VirtualRegisterES8_iNS_22CodeSpecializationKindE
__ZN3JSC3DFG20QueryableExitProfileC1ERKNS0_11ExitProfileE
__ZN3JSC29LazyOperandValueProfileParserC1ERNS_39CompressedLazyOperandValueProfileHolderE
__ZN3JSC29LazyOperandValueProfileParserC2ERNS_39CompressedLazyOperandValueProfileHolderE
__ZN3WTF6VectorIPN3JSC3DFG16ArgumentPositionELm0ENS_15CrashOnOverflowEE14expandCapacityEm
__ZN3WTF15SegmentedVectorIN3JSC3DFG16ArgumentPositionELm8ELm32EE6appendIS3_EEvRKT_
__ZN3WTF6VectorIPNS0_IN3JSC3DFG16ArgumentPositionELm8ENS_15CrashOnOverflowEEELm0ES4_E14expandCapacityEm
__ZNK3JSC3DFG20QueryableExitProfile11hasExitSiteERKNS0_16FrequentExitSiteE
__ZN3JSC3DFG14ByteCodeParser14parseCodeBlockEv
__ZN3JSC25computePreciseJumpTargetsEPNS_9CodeBlockERN3WTF6VectorIjLm32ENS2_15CrashOnOverflowEEE
__ZN3JSC3DFG10BasicBlockC2Ejjj
__ZN3WTF6VectorIPN3JSC3DFG4NodeELm8ENS_15CrashOnOverflowEE4fillERKS4_m
__ZN3WTF6VectorIPN3JSC3DFG4NodeELm16ENS_15CrashOnOverflowEE4fillERKS4_m
__ZN3WTF6VectorIN3JSC3DFG13AbstractValueELm8ENS_15CrashOnOverflowEE4fillERKS3_m
__ZN3WTF6VectorIN3JSC3DFG13AbstractValueELm16ENS_15CrashOnOverflowEE4fillERKS3_m
__ZN3WTF6VectorIN3JSC3DFG13UnlinkedBlockELm0ENS_15CrashOnOverflowEE15reserveCapacityEm
__ZN3JSC3DFG14ByteCodeParser10parseBlockEj
__ZN3WTF15SegmentedVectorIN3JSC3DFG18VariableAccessDataELm16ELm32EE6appendIS3_EEvRKT_
__ZN3WTF6VectorIPNS0_IN3JSC3DFG18VariableAccessDataELm16ENS_15CrashOnOverflowEEELm0ES4_E14expandCapacityEm
__ZN3JSC3DFG14ByteCodeParser10addToGraphENS0_8NodeTypeENS0_6OpInfoEPNS0_4NodeES5_S5_
__ZnwmRN3JSC3DFG9AllocatorINS0_4NodeEEE
__ZN3JSC3DFG12defaultFlagsENS0_8NodeTypeE
__ZN3JSC11Interpreter11getOpcodeIDEPv
__ZN3JSC3DFG14ByteCodeParser8setLocalEjPNS0_4NodeENS1_7SetModeE
__ZN3JSC3DFG14ByteCodeParser3getEi
__ZN3JSC3DFG14ByteCodeParser8getLocalEj
__ZN3JSC13GetByIdStatus10computeForEPNS_9CodeBlockEjRNS_10IdentifierE
__ZN3WTF6VectorIPN3JSC9StructureELm0ENS_15CrashOnOverflowEE14expandCapacityEm
__ZN3JSC13GetByIdStatus15computeForChainERS0_PNS_9CodeBlockERNS_10IdentifierEPNS_9StructureE
__ZNK3JSC9Structure18prototypeForLookupEPNS_9CodeBlockE
__ZN3JSC12StructureSet3addEPNS_9StructureE
__ZN3WTF12VectorBufferIPN3JSC9StructureELm2EE4swapERS4_
__ZN3JSC3DFG14ByteCodeParser13handleGetByIdEijPNS0_4NodeEjRKNS_13GetByIdStatusE
__ZN3WTF15SegmentedVectorIN3JSC12StructureSetELm16ELm32EE6appendIS2_EEvRKT_
__ZN3WTF6VectorIPNS0_IN3JSC12StructureSetELm16ENS_15CrashOnOverflowEEELm0ES3_E14expandCapacityEm
__ZN3JSC3DFG14ByteCodeParser27addStructureTransitionCheckEPNS_6JSCellEPNS_9StructureE
__ZN3WTF9HashTableIPN3JSC6JSCellENS_12KeyValuePairIS3_PNS1_3DFG4NodeEEENS_24KeyValuePairKeyExtractorIS8_EENS_7PtrHashIS3_EENS_18HashMapValueTraitsINS_10HashTraitsIS3_EENSE_IS7_EEEESF_E16lookupForWritingINS_22IdentityHashTranslatorISC_EES3_EENSt3__14pairIPS8_bEERKT0_
__ZN3WTF9HashTableIPN3JSC6JSCellENS_12KeyValuePairIS3_PNS1_3DFG4NodeEEENS_24KeyValuePairKeyExtractorIS8_EENS_7PtrHashIS3_EENS_18HashMapValueTraitsINS_10HashTraitsIS3_EENSE_IS7_EEEESF_E3addINS_17HashMapTranslatorISH_SC_EES3_S7_EENS_18HashTableAddResultINS_17HashTableIteratorIS3_S8_SA_SC_SH_SF_EEEERKT0_RKT1_
__ZN3JSC3DFG14ByteCodeParser10addToGraphENS0_8NodeTypeEPNS0_4NodeES4_S4_
__ZN3WTF6VectorIPN3JSC3DFG4NodeELm8ENS_15CrashOnOverflowEE15reserveCapacityEm
__ZN3JSC3DFG14ByteCodeParser11getArgumentEj
__ZNK3JSC29LazyOperandValueProfileParser10predictionERKNS_26LazyOperandValueProfileKeyE
__ZNK3JSC29LazyOperandValueProfileParser12getIfPresentERKNS_26LazyOperandValueProfileKeyE
__ZN3JSC3DFG14ByteCodeParser10handleCallEPNS_11InterpreterEPNS_11InstructionENS0_8NodeTypeENS_22CodeSpecializationKindE
__ZN3JSC14CallLinkStatusC1ENS_7JSValueE
__ZNK3JSC14CallLinkStatus16internalFunctionEv
__ZNK3JSC14CallLinkStatus12intrinsicForENS_22CodeSpecializationKindE
__ZNK3JSC14ExecutableBase9intrinsicEv
__ZN3JSC3DFG14ByteCodeParser18emitFunctionChecksERKNS_14CallLinkStatusEPNS0_4NodeEiNS_22CodeSpecializationKindE
__ZN3JSC3DFG14ByteCodeParser15handleIntrinsicEbiNS_9IntrinsicEiij
__ZN3JSC3DFG14ByteCodeParser10addToGraphENS0_8NodeTypeENS0_6OpInfoES3_PNS0_4NodeES5_S5_
__ZN3JSC3DFG14ByteCodeParser5flushEPNS1_16InlineStackEntryE
__ZN3JSC3DFG14ByteCodeParser11flushDirectEi
__ZN3JSC3DFG14ByteCodeParser11flushDirectEiPNS0_16ArgumentPositionE
__ZN3JSC3DFG16ArgumentPosition11addVariableEPNS0_18VariableAccessDataE
__ZN3JSC3DFG14ByteCodeParser9linkBlockEPNS0_10BasicBlockERN3WTF6VectorIjLm0ENS4_15CrashOnOverflowEEE
__ZN3JSC3DFG5Graph21determineReachabilityEv
__ZN3JSC3DFG14ByteCodeParser16InlineStackEntryD2Ev
__ZN3JSC29LazyOperandValueProfileParserD1Ev
__ZN3JSC3DFG20QueryableExitProfileD1Ev
__ZN3JSC3DFG14ByteCodeParserD2Ev
__ZN3WTF6VectorIN3JSC12WriteBarrierINS1_18FunctionExecutableEEELm0ENS_15CrashOnOverflowEE14shrinkCapacityEm
__ZN3JSC3DFG21performCPSRethreadingERNS0_5GraphE
__ZN3JSC3DFG8runPhaseINS0_19CPSRethreadingPhaseEEEbRNS0_5GraphE
__ZN3JSC3DFG5Phase10beginPhaseEv
__ZN3JSC3DFG19CPSRethreadingPhase3runEv
__ZN3JSC3DFG19CPSRethreadingPhase20freeUnnecessaryNodesEv
__ZN3JSC3DFG19CPSRethreadingPhase25canonicalizeLocalsInBlockEv
__ZN3JSC3DFG5Graph19performSubstitutionEPNS0_4NodeE
__ZN3JSC3DFG19CPSRethreadingPhase23canonicalizeGetLocalForILNS_11OperandKindE0EEEvPNS0_4NodeEPNS0_18VariableAccessDataEm
__ZN3JSC3DFG19CPSRethreadingPhase34canonicalizeFlushOrPhantomLocalForILNS0_8NodeTypeE15ELNS_11OperandKindE0EEEvPNS0_4NodeEPNS0_18VariableAccessDataEm
__ZN3JSC3DFG19CPSRethreadingPhase13propagatePhisILNS_11OperandKindE1EEEvv
__ZN3JSC3DFG19CPSRethreadingPhase13propagatePhisILNS_11OperandKindE0EEEvv
__ZN3JSC3DFG5Phase8endPhaseEv
__ZN3JSC3DFG18performUnificationERNS0_5GraphE
__ZN3JSC3DFG16UnificationPhase3runEv
__ZN3JSC3DFG26performPredictionInjectionERNS0_5GraphE
__ZN3JSC3DFG24PredictionInjectionPhase3runEv
__ZN3JSC3DFG27performBackwardsPropagationERNS0_5GraphE
__ZN3JSC3DFG25BackwardsPropagationPhase9propagateEPNS0_4NodeE
__ZN3JSC3DFG25BackwardsPropagationPhase17mergeDefaultFlagsEPNS0_4NodeE
__ZN3JSC3DFG28performPredictionPropagationERNS0_5GraphE
__ZN3JSC3DFG26PredictionPropagationPhase3runEv
__ZN3JSC3DFG26PredictionPropagationPhase9propagateEPNS0_4NodeE
__ZN3JSC3DFG26PredictionPropagationPhase17propagateBackwardEv
__ZN3JSC3DFG26PredictionPropagationPhase21doRoundOfDoubleVotingEv
__ZN3JSC3DFG26PredictionPropagationPhase14doDoubleVotingEPNS0_4NodeE
__ZN3JSC3DFG5Graph12voteChildrenEPNS0_4NodeEj
__ZN3JSC3DFG18VariableAccessData34tallyVotesForShouldUseDoubleFormatEv
__ZN3JSC3DFG16ArgumentPosition32mergeArgumentPredictionAwarenessEv
__ZN3JSC3DFG12performFixupERNS0_5GraphE
__ZN3JSC3DFG8runPhaseINS0_10FixupPhaseEEEbRNS0_5GraphE
__ZN3JSC3DFG10FixupPhase3runEv
__ZN3JSC3DFG10FixupPhase9fixupNodeEPNS0_4NodeE
__ZN3JSC3DFG10FixupPhase20observeUseKindOnNodeEPNS0_4NodeENS0_7UseKindE
__ZN3JSC3DFG12InsertionSet7executeEPNS0_10BasicBlockE
__ZN3JSC3DFG10FixupPhase21fixupSetLocalsInBlockEPNS0_10BasicBlockE
__ZN3JSC3DFG24performTypeCheckHoistingERNS0_5GraphE
__ZN3JSC3DFG8runPhaseINS0_22TypeCheckHoistingPhaseEEEbRNS0_5GraphE
__ZN3JSC3DFG22TypeCheckHoistingPhase3runEv
__ZN3WTF7HashMapIPN3JSC3DFG18VariableAccessDataENS2_22TypeCheckHoistingPhase9CheckDataENS_7PtrHashIS4_EENS_10HashTraitsIS4_EENS9_IS6_EEE4findERKS4_
__ZN3JSC3DFG10performCSEERNS0_5GraphE
__ZN3JSC3DFG8runPhaseINS0_8CSEPhaseILNS0_7CSEModeE0EEEEEbRNS0_5GraphE
__ZN3JSC3DFG8CSEPhaseILNS0_7CSEModeE0EE15performBlockCSEEPNS0_10BasicBlockE
__ZN3JSC3DFG8CSEPhaseILNS0_7CSEModeE0EE14performNodeCSEEPNS0_4NodeE
__ZN3JSC3DFG8CSEPhaseILNS0_7CSEModeE0EE25checkStructureEliminationERKNS_12StructureSetEPNS0_4NodeE
__ZN3JSC3DFG5Graph13clobbersWorldEPNS0_4NodeE
__ZN3JSC3DFG8CSEPhaseILNS0_7CSEModeE0EE40structureTransitionWatchpointEliminationEPNS_9StructureEPNS0_4NodeE
__ZN3JSC3DFG30performArgumentsSimplificationERNS0_5GraphE
__ZN3JSC3DFG8runPhaseINS0_28ArgumentsSimplificationPhaseEEEbRNS0_5GraphE
__ZN3JSC3DFG28ArgumentsSimplificationPhase3runEv
__ZN3JSC3DFG10performCFAERNS0_5GraphE
__ZN3JSC3DFG8runPhaseINS0_8CFAPhaseEEEbRNS0_5GraphE
__ZN3JSC3DFG13AbstractStateC1ERNS0_5GraphE
__ZN3JSC3DFG13AbstractState10initializeERNS0_5GraphE
__ZN3JSC3DFG13AbstractState15beginBasicBlockEPNS0_10BasicBlockE
__ZN3WTF6VectorIN3JSC3DFG13AbstractValueELm8ENS_15CrashOnOverflowEEaSERKS5_
__ZN3WTF6VectorIN3JSC3DFG13AbstractValueELm16ENS_15CrashOnOverflowEEaSERKS5_
__ZN3JSC3DFG13AbstractState7executeEj
__ZN3JSC3DFG13AbstractState12executeEdgesEPNS0_4NodeE
__ZN3JSC3DFG13AbstractState14executeEffectsEjPNS0_4NodeE
__ZN3JSC9CodeBlock15globalObjectForENS_10CodeOriginE
__ZN3JSC24speculationFromStructureEPNS_9StructureE
__ZN3JSC3DFG13AbstractValue6filterEj
__ZN3JSC3DFG13AbstractValue6filterERKNS_12StructureSetE
__ZN3JSC3DFG13AbstractState13endBasicBlockENS1_9MergeModeE
__ZN3JSC3DFG13AbstractStateD1Ev
__ZN3JSC3DFG22performConstantFoldingERNS0_5GraphE
__ZN3JSC3DFG8runPhaseINS0_20ConstantFoldingPhaseEEEbRNS0_5GraphE
__ZN3JSC3DFG20ConstantFoldingPhase20paintUnreachableCodeEj
__ZN3JSC3DFG13AbstractState5resetEv
__ZN3JSC3DFG20ConstantFoldingPhase13foldConstantsEj
__ZN3WTF6VectorIPN3JSC9StructureELm2ENS_15CrashOnOverflowEEaSERKS5_
__ZN3JSC3DFG24performCFGSimplificationERNS0_5GraphE
__ZN3JSC3DFG22CFGSimplificationPhase3runEv
__ZN3JSC3DFG23performStoreEliminationERNS0_5GraphE
__ZN3JSC3DFG8runPhaseINS0_8CSEPhaseILNS0_7CSEModeE1EEEEEbRNS0_5GraphE
__ZN3JSC3DFG8CSEPhaseILNS0_7CSEModeE1EE15performBlockCSEEPNS0_10BasicBlockE
__ZN3JSC3DFG8CSEPhaseILNS0_7CSEModeE1EE14performNodeCSEEPNS0_4NodeE
__ZN3JSC3DFG10performDCEERNS0_5GraphE
__ZN3JSC3DFG8runPhaseINS0_8DCEPhaseEEEbRNS0_5GraphE
__ZN3JSC3DFG8DCEPhase3runEv
__ZN3JSC3DFG8DCEPhase17findTypeCheckRootEPNS0_4NodeENS0_4EdgeE
__ZN3JSC3DFG8DCEPhase9countEdgeEPNS0_4NodeENS0_4EdgeE
__ZN3JSC3DFG32performVirtualRegisterAllocationERNS0_5GraphE
__ZN3JSC3DFG30VirtualRegisterAllocationPhase3runEv
__ZN3JSC3DFG10ScoreBoardC2ERKN3WTF9BitVectorE
__ZN3WTF6VectorIjLm64ENS_15CrashOnOverflowEE4fillERKjm
__ZN3WTF6VectorIjLm64ENS_15CrashOnOverflowEE15reserveCapacityEm
__ZN3JSC3DFG10ScoreBoard8allocateEv
__ZN3JSC3DFG10ScoreBoard3useEPNS0_4NodeE
__ZN3JSC3DFG11JITCompilerC1ERNS0_5GraphE
__ZN3JSC3DFG11JITCompilerC2ERNS0_5GraphE
__ZN3JSC3DFG11JITCompiler15compileFunctionERNS_7JITCodeERNS_21MacroAssemblerCodePtrE
__ZN3JSC3DFG11JITCompiler12compileEntryEv
__ZN3JSC3DFG14SpeculativeJITC1ERNS0_11JITCompilerE
__ZN3JSC3DFG14SpeculativeJITC2ERNS0_11JITCompilerE
__ZN3JSC3DFG14SpeculativeJIT7compileEv
__ZN3JSC3DFG14SpeculativeJIT18checkArgumentTypesEv
__ZN3JSC3DFG14SpeculativeJIT24backwardSpeculationCheckENS_8ExitKindENS0_13JSValueSourceEPNS0_4NodeENS_22AbstractMacroAssemblerINS_12X86AssemblerEE4JumpE
__ZN3JSC3DFG14SpeculativeJIT24backwardSpeculationCheckENS_8ExitKindENS0_13JSValueSourceEPNS0_4NodeENS_22AbstractMacroAssemblerINS_12X86AssemblerEE4JumpERKNS0_19SpeculationRecoveryE
__ZN3JSC3DFG11JITCompiler14appendExitInfoENS_22AbstractMacroAssemblerINS_12X86AssemblerEE8JumpListE
__ZN3WTF6VectorIN3JSC22AbstractMacroAssemblerINS1_12X86AssemblerEE4JumpELm2ENS_15CrashOnOverflowEEaSERKS7_
__ZN3WTF6VectorIN3JSC3DFG22OSRExitCompilationInfoELm0ENS_15CrashOnOverflowEE14appendSlowCaseIS3_EEvRKT_
__ZN3WTF6VectorIN3JSC3DFG22OSRExitCompilationInfoELm0ENS_15CrashOnOverflowEE15reserveCapacityEm
__ZN3JSC3DFG5Graph31methodOfGettingAValueProfileForEPNS0_4NodeE
__ZN3JSC3DFG5Graph15valueProfileForEPNS0_4NodeE
__ZN3JSC3DFG7OSRExitC1ENS_8ExitKindENS0_13JSValueSourceENS_28MethodOfGettingAValueProfileEPNS0_14SpeculativeJITEjj
__ZN3WTF15SegmentedVectorIN3JSC3DFG7OSRExitELm8ELm32EE6appendIS3_EEvRKT_
__ZN3WTF6VectorIPNS0_IN3JSC3DFG7OSRExitELm8ENS_15CrashOnOverflowEEELm0ES4_E14expandCapacityEm
__ZN3JSC3DFG14SpeculativeJIT7compileERNS0_10BasicBlockE
__ZN3JSC3DFG19VariableEventStream12appendAndLogERKNS0_13VariableEventE
__ZN3WTF6VectorIN3JSC3DFG13VariableEventELm0ENS_15CrashOnOverflowEE15reserveCapacityEm
__ZN3JSC3DFG13AbstractState14startExecutingEPNS0_4NodeE
__ZN3JSC3DFG14SpeculativeJIT7compileEPNS0_4NodeE
__ZN3JSC3DFG13AbstractState14executeEffectsEj
__ZN3JSC3DFG14SpeculativeJIT14flushRegistersEv
__ZN3JSC3DFG12GPRTemporaryC2EPNS0_14SpeculativeJITENS_12X86Registers10RegisterIDE
__ZN3JSC3DFG14SpeculativeJIT13callOperationEPFxPNS_9ExecStateEPvENS_12X86Registers10RegisterIDES4_
__ZN3JSC3DFG14SpeculativeJIT37appendCallWithExceptionCheckSetResultERKNS_11FunctionPtrENS_12X86Registers10RegisterIDE
__ZN3JSC3DFG11JITCompiler10appendCallERKNS_11FunctionPtrE
__ZN3WTF6VectorIN3JSC3DFG14CallLinkRecordELm0ENS_15CrashOnOverflowEE15reserveCapacityEm
__ZN3JSC3DFG11JITCompiler17addExceptionCheckENS_22AbstractMacroAssemblerINS_12X86AssemblerEE4CallENS_10CodeOriginERNS0_14CallBeginTokenE
__ZN3JSC20MacroAssemblerX86_6412branchTest64ENS_23MacroAssemblerX86Common15ResultConditionENS_22AbstractMacroAssemblerINS_12X86AssemblerEE15AbsoluteAddressENS5_12TrustedImm32E
__ZN3WTF6VectorIN3JSC3DFG19CallExceptionRecordELm0ENS_15CrashOnOverflowEE15reserveCapacityEm
__ZN3JSC3DFG14SpeculativeJIT11useChildrenEPNS0_4NodeE
__ZN3JSC3DFG14SpeculativeJIT14compileMovHintEPNS0_4NodeE
__ZN3JSC3DFG14GenerationInfo14noticeOSRBirthERNS0_19VariableEventStreamEPNS0_4NodeENS_15VirtualRegisterE
__ZN3JSC3DFG14SpeculativeJIT9speculateEPNS0_4NodeENS0_4EdgeE
__ZN3JSC3DFG14SpeculativeJIT3useEPNS0_4NodeE
__ZN3JSC9CodeBlock19appendWeakReferenceEPNS_6JSCellE
__ZN3WTF6VectorIN3JSC12WriteBarrierINS1_6JSCellEEELm0ENS_15CrashOnOverflowEE15reserveCapacityEm
__ZN3JSC3DFG12MinifiedNode8fromNodeEPNS0_4NodeE
__ZN3JSC3DFG13MinifiedGraph6appendERKNS0_12MinifiedNodeE
__ZN3WTF6VectorIN3JSC3DFG12MinifiedNodeELm0ENS_15CrashOnOverflowEE15reserveCapacityEm
__ZN3JSC3DFG14SpeculativeJIT21speculationWatchpointENS_8ExitKindE
__ZN3JSC3DFG14SpeculativeJIT21speculationWatchpointENS_8ExitKindENS0_13JSValueSourceEPNS0_4NodeE
__ZN3WTF15SegmentedVectorIN3JSC25JumpReplacementWatchpointELm1ELm0EE6appendIS2_EEvRKT_
__ZN3WTF6VectorIPNS0_IN3JSC25JumpReplacementWatchpointELm1ENS_15CrashOnOverflowEEELm0ES3_E14expandCapacityEm
__ZN3JSC10WatchpointD2Ev
__ZN3JSC3DFG14SpeculativeJIT13speculateCellENS0_4EdgeE
__ZN3JSC3DFG12GPRTemporaryC1EPNS0_14SpeculativeJITE
__ZN3JSC3DFG14SpeculativeJIT17fillSpeculateCellENS0_4EdgeE
__ZN3JSC3DFG14SpeculativeJIT5spillENS_15VirtualRegisterE
__ZN3JSC3DFG14SpeculativeJIT13callOperationEPFmPNS_9ExecStateEPNS_6JSCellES5_ENS_12X86Registers10RegisterIDES9_S9_
__ZN3JSC3DFG12CCallHelpers16setupTwoStubArgsILNS_12X86Registers10RegisterIDE6ELS4_2EEEvS4_S4_
__ZN3JSC3DFG14SpeculativeJIT11fillJSValueENS0_4EdgeE
__ZN3JSC3DFG11JITCompiler10notifyCallENS_22AbstractMacroAssemblerINS_12X86AssemblerEE4CallENS_10CodeOriginERNS0_14CallBeginTokenE
__ZN3JSC3DFG14SpeculativeJIT21runSlowPathGeneratorsEv
__ZN3JSC3DFG11JITCompiler24compileExceptionHandlersEv
__ZN3JSC3DFG11JITCompiler12linkOSRExitsEv
__ZN3JSC20MacroAssemblerX86_647store32ENS_22AbstractMacroAssemblerINS_12X86AssemblerEE12TrustedImm32EPv
__ZN3JSC3DFG7OSRExit22setPatchableCodeOffsetENS_22AbstractMacroAssemblerINS_12X86AssemblerEE13PatchableJumpE
__ZN3JSC3DFG14SpeculativeJIT16createOSREntriesEv
__ZN3WTF6VectorIN3JSC22AbstractMacroAssemblerINS1_12X86AssemblerEE5LabelELm0ENS_15CrashOnOverflowEE15reserveCapacityEm
__ZN3JSC3DFG11JITCompiler4linkERNS_10LinkBufferE
__ZN3WTF6VectorIN3JSC28CodeOriginAtCallReturnOffsetELm0ENS_20UnsafeVectorOverflowEE15reserveCapacityEm
__ZN3JSC3DFG31osrExitGenerationThunkGeneratorEPNS_2VME
__ZN3JSC2VM20scratchBufferForSizeEm
__ZN3WTF6VectorIPN3JSC13ScratchBufferELm0ENS_15CrashOnOverflowEE14expandCapacityEm
__ZN3JSC20MacroAssemblerX86_647store64ENS_12X86Registers10RegisterIDEPv
__ZN3JSC20MacroAssemblerX86_644jumpENS_22AbstractMacroAssemblerINS_12X86AssemblerEE15AbsoluteAddressE
__ZNK3JSC3DFG7OSRExit28getPatchableCodeOffsetAsJumpEv
__ZN3JSC3DFG7OSRExit11correctJumpERNS_10LinkBufferE
__ZN3JSC25JumpReplacementWatchpoint13correctLabelsERNS_10LinkBufferE
__ZN3JSC9CodeBlock15saveCompilationEN3WTF10PassRefPtrINS_8Profiler11CompilationEEE
__ZN3JSC3DFG14SpeculativeJIT14linkOSREntriesERNS_10LinkBufferE
__ZN3JSC3DFG11JITCompiler14noticeOSREntryERNS0_10BasicBlockENS_22AbstractMacroAssemblerINS_12X86AssemblerEE5LabelERNS_10LinkBufferE
__ZN3JSC9CodeBlock21appendDFGOSREntryDataEjj
__ZN3WTF6VectorIN3JSC3DFG12OSREntryDataELm0ENS_15CrashOnOverflowEE14appendSlowCaseIS3_EEvRKT_
__ZN3WTF6VectorIN3JSC3DFG12OSREntryDataELm0ENS_15CrashOnOverflowEE15reserveCapacityEm
__ZN3JSC8OperandsINS_3DFG13AbstractValueENS_18OperandValueTraitsIS2_EEEC2ERKS5_
__ZN3WTF6VectorIN3JSC3DFG12OSREntryDataELm0ENS_15CrashOnOverflowEE14shrinkCapacityEm
__ZN3WTF6VectorIPNS0_IN3JSC3DFG7OSRExitELm8ENS_15CrashOnOverflowEEELm0ES4_E14shrinkCapacityEm
__ZN3WTF6VectorIN3JSC3DFG19SpeculationRecoveryELm0ENS_15CrashOnOverflowEE14shrinkCapacityEm
__ZN3WTF6VectorIN3JSC12WriteBarrierINS1_6JSCellEEELm0ENS_15CrashOnOverflowEE14shrinkCapacityEm
__ZN3WTF6VectorIN3JSC9CodeBlock23WeakReferenceTransitionELm0ENS_15CrashOnOverflowEE14shrinkCapacityEm
__ZNSt3__16__sortIRPFbRKN3JSC3DFG12MinifiedNodeES5_EPS3_EEvT0_SA_T_
__ZN3JSC3DFG12MinifiedNode18compareByNodeIndexERKS1_S3_
__ZN3WTF6VectorIN3JSC3DFG12MinifiedNodeELm0ENS_15CrashOnOverflowEE14shrinkCapacityEm
__ZN3WTF6VectorIN3JSC3DFG13VariableEventELm0ENS_15CrashOnOverflowEE14shrinkCapacityEm
__ZN3JSC3DFG14SpeculativeJITD1Ev
__ZN3JSC3DFG14SpeculativeJITD2Ev
__ZN3JSC3DFG11JITCompilerD2Ev
__ZN3JSC3DFG5GraphD1Ev
__ZN3JSC3DFG5GraphD2Ev
__ZN3JSC3DFG10DominatorsD1Ev
__ZN3WTF15SegmentedVectorIN3JSC3DFG18NewArrayBufferDataELm4ELm32EED2Ev
__ZN3WTF15SegmentedVectorIN3JSC3DFG23StructureTransitionDataELm8ELm32EED2Ev
__ZN3WTF15SegmentedVectorIN3JSC12StructureSetELm16ELm32EED2Ev
__ZN3WTF15SegmentedVectorIN3JSC3DFG16ArgumentPositionELm8ELm32EED2Ev
__ZN3WTF15SegmentedVectorIN3JSC3DFG18VariableAccessDataELm16ELm32EED2Ev
__ZN3JSC3DFG10BasicBlockD2Ev
__ZN3WTF9HashTableIPN3JSC9CodeBlockES3_NS_17IdentityExtractorENS_7PtrHashIS3_EENS_10HashTraitsIS3_EES8_E3addINS_22IdentityHashTranslatorIS6_EES3_S3_EENS_18HashTableAddResultINS_17HashTableIteratorIS3_S3_S4_S6_S8_S8_EEEERKT0_RKT1_
__ZN3JSC3DFG15prepareOSREntryEPNS_9ExecStateEPNS_9CodeBlockEj
__ZN3JSC9CodeBlock12optimizeSoonEv
_operationNewRegexp
_operationRegExpTest
__ZN3JSC9CodeBlock20updateAllPredictionsENS_19OperationInProgressE
__ZN3JSC3DFG14ByteCodeParser22parseResolveOperationsEjjPN3WTF6VectorINS_16ResolveOperationELm0ENS2_15CrashOnOverflowEEEPNS_18PutToBaseOperationEPPNS0_4NodeESC_
__ZN3JSC3DFG14ByteCodeParser17handleGetByOffsetEijPNS0_4NodeEji
__ZN3JSC3DFG14ByteCodeParser17handleGetByOffsetEjPNS0_4NodeEji
__ZN3WTF6VectorIN3JSC3DFG17StorageAccessDataELm0ENS_15CrashOnOverflowEE15reserveCapacityEm
__ZN3JSC3DFG14ByteCodeParser3oneEv
__ZN3JSC9CodeBlock11addConstantENS_7JSValueE
__ZN3JSC3DFG14ByteCodeParser8makeSafeEPNS0_4NodeE
__ZN3JSC13PutByIdStatus10computeForEPNS_9CodeBlockEjRNS_10IdentifierE
__ZN3WTF15SegmentedVectorIN3JSC3DFG23StructureTransitionDataELm8ELm32EE6appendIS3_EEvRKT_
__ZN3WTF6VectorIPNS0_IN3JSC3DFG23StructureTransitionDataELm8ENS_15CrashOnOverflowEEELm0ES4_E14expandCapacityEm
__ZN3JSC3DFG5Graph23arithAddSpeculationModeEPNS0_4NodeE
__ZN3JSC3DFG5Graph34addImmediateShouldSpeculateIntegerEPNS0_4NodeEbS3_
__ZN3JSC3DFG10FixupPhase23attemptToMakeIntegerAddEPNS0_4NodeE
__ZN3WTF9HashTableIPN3JSC3DFG18VariableAccessDataENS_12KeyValuePairIS4_NS2_22TypeCheckHoistingPhase9CheckDataEEENS_24KeyValuePairKeyExtractorIS8_EENS_7PtrHashIS4_EENS_18HashMapValueTraitsINS_10HashTraitsIS4_EENSE_IS7_EEEESF_E16lookupForWritingINS_22IdentityHashTranslatorISC_EES4_EENSt3__14pairIPS8_bEERKT0_
__ZN3WTF9HashTableIPN3JSC3DFG18VariableAccessDataENS_12KeyValuePairIS4_NS2_22TypeCheckHoistingPhase9CheckDataEEENS_24KeyValuePairKeyExtractorIS8_EENS_7PtrHashIS4_EENS_18HashMapValueTraitsINS_10HashTraitsIS4_EENSE_IS7_EEEESF_E3addINS_17HashMapTranslatorISH_SC_EES4_S7_EENS_18HashTableAddResultINS_17HashTableIteratorIS4_S8_SA_SC_SH_SF_EEEERKT0_RKT1_
__ZN3WTF9HashTableIPN3JSC3DFG18VariableAccessDataENS_12KeyValuePairIS4_NS2_22TypeCheckHoistingPhase9CheckDataEEENS_24KeyValuePairKeyExtractorIS8_EENS_7PtrHashIS4_EENS_18HashMapValueTraitsINS_10HashTraitsIS4_EENSE_IS7_EEEESF_E6rehashEi
__ZN3JSC3DFG12InsertionSet6insertERKNS0_9InsertionE
__ZN3JSC3DFG5Graph18substituteGetLocalERNS0_10BasicBlockEjPNS0_18VariableAccessDataEPNS0_4NodeE
__ZN3JSC3DFG5Graph10substituteIPNS0_4NodeEEEvRNS0_10BasicBlockEjT_S7_
__ZN3JSC3DFG8CSEPhaseILNS0_7CSEModeE0EE33getPropertyStorageLoadEliminationEPNS0_4NodeE
__ZN3JSC3DFG8CSEPhaseILNS0_7CSEModeE0EE26getByOffsetLoadEliminationEjPNS0_4NodeE
__ZN3JSC3DFG8CSEPhaseILNS0_7CSEModeE0EE7pureCSEEPNS0_4NodeE
__ZN3JSC3DFG13AbstractState17clobberStructuresEj
__ZN3JSC3DFG8CSEPhaseILNS0_7CSEModeE1EE27putByOffsetStoreEliminationEjPNS0_4NodeE
__ZN3JSC3DFG14SpeculativeJIT16speculationCheckENS_8ExitKindENS0_13JSValueSourceEPNS0_4NodeENS_22AbstractMacroAssemblerINS_12X86AssemblerEE4JumpE
__ZN3JSC20MacroAssemblerX86_646load64EPKvNS_12X86Registers10RegisterIDE
__ZN3JSC3DFG14SpeculativeJIT16speculationCheckENS_8ExitKindENS0_13JSValueSourceENS0_4EdgeENS_22AbstractMacroAssemblerINS_12X86AssemblerEE4JumpE
__ZN3JSC3DFG14SpeculativeJIT16speculationCheckENS_8ExitKindENS0_13JSValueSourceENS0_4EdgeENS_22AbstractMacroAssemblerINS_12X86AssemblerEE4JumpERKNS0_19SpeculationRecoveryE
__ZN3JSC3DFG12GPRTemporaryC1EPNS0_14SpeculativeJITERNS0_20SpeculateCellOperandE
__ZN3JSC3DFG12GPRTemporaryC2EPNS0_14SpeculativeJITERNS0_20SpeculateCellOperandE
__ZN3JSC3DFG14SpeculativeJIT11fillStorageENS0_4EdgeE
__ZN3JSC3DFG12GPRTemporaryC1EPNS0_14SpeculativeJITERNS0_14StorageOperandE
__ZN3JSC3DFG12GPRTemporaryC2EPNS0_14SpeculativeJITERNS0_14StorageOperandE
__ZN3JSC3DFG14SpeculativeJIT10compileAddEPNS0_4NodeE
__ZN3JSC3DFG14SpeculativeJIT16fillSpeculateIntENS0_4EdgeERNS_10DataFormatE
__ZN3JSC3DFG14SpeculativeJIT24fillSpeculateIntInternalILb0EEENS_12X86Registers10RegisterIDENS0_4EdgeERNS_10DataFormatE
__ZN3JSC14MacroAssembler11branchAdd32ENS_23MacroAssemblerX86Common15ResultConditionENS_12X86Registers10RegisterIDENS_22AbstractMacroAssemblerINS_12X86AssemblerEE5Imm32ES4_
__ZN3JSC9CodeBlock29appendWeakReferenceTransitionEPNS_6JSCellES2_S2_
__ZN3WTF6VectorIN3JSC9CodeBlock23WeakReferenceTransitionELm0ENS_15CrashOnOverflowEE15reserveCapacityEm
__ZNSt3__17__sort4IRPFbRKN3JSC3DFG12MinifiedNodeES5_EPS3_EEjT0_SA_SA_SA_T_
__ZN3WTF9HashTableIPN3JSC9CodeBlockES3_NS_17IdentityExtractorENS_7PtrHashIS3_EENS_10HashTraitsIS3_EES8_E16lookupForWritingINS_22IdentityHashTranslatorIS6_EES3_EENSt3__14pairIPS3_bEERKT0_
__ZN3JSC18FunctionExecutable28compileOptimizedForConstructEPNS_9ExecStateEPNS_7JSScopeEj
__ZN3JSC3DFG14ByteCodeParser11setArgumentEiPNS0_4NodeENS1_7SetModeE
__ZN3JSC14CallLinkStatus10computeForEPNS_9CodeBlockEj
__ZN3JSC3DFG14ByteCodeParser14handleInliningEbPNS0_4NodeEiRKNS_14CallLinkStatusEiijNS_22CodeSpecializationKindE
__ZN3JSC18FunctionExecutable20baselineCodeBlockForENS_22CodeSpecializationKindE
__ZN3JSC3DFG26mightInlineFunctionForCallEPNS_9CodeBlockE
__ZN3JSC3DFG16canInlineOpcodesEPNS_9CodeBlockE
__ZN3JSC3DFG16canHandleOpcodesIbXadL_ZNS0_15canInlineOpcodeENS_8OpcodeIDEPNS_9CodeBlockEPNS_11InstructionEEEEET_S4_S7_
__ZNK3JSC14CallLinkStatus8functionEv
__ZN3JSC3DFG10BasicBlock12ensureLocalsEj
__ZN3JSC8OperandsINS_3DFG13AbstractValueENS_18OperandValueTraitsIS2_EEE12ensureLocalsEm
__ZN3WTF15SegmentedVectorIN3JSC15InlineCallFrameELm4ELm32EE6appendIS2_EEvRKT_
__ZN3WTF6VectorIPNS0_IN3JSC15InlineCallFrameELm4ENS_15CrashOnOverflowEEELm0ES3_E14expandCapacityEm
__ZN3JSC15InlineCallFrameC2ERKS0_
__ZN3JSC3DFG14ByteCodeParser27buildOperandMapsIfNecessaryEv
__ZN3JSC9CodeBlock13addIdentifierERKNS_10IdentifierE
__ZN3JSC3DFG14ByteCodeParser7addCallEPNS_11InterpreterEPNS_11InstructionENS0_8NodeTypeE
__ZN3JSC3DFG14ByteCodeParser14addVarArgChildEPNS0_4NodeE
__ZN3JSC3DFG14ByteCodeParser10addToGraphENS0_4Node9VarArgTagENS0_8NodeTypeENS0_6OpInfoES5_
__ZN3JSC3DFG5Graph15handleSuccessorERN3WTF6VectorIjLm16ENS2_15CrashOnOverflowEEEjj
__ZN3WTF6VectorIPN3JSC3DFG4NodeELm0ENS_15CrashOnOverflowEE14expandCapacityEm
__ZN3JSC3DFG19CPSRethreadingPhase23canonicalizeGetLocalForILNS_11OperandKindE1EEEvPNS0_4NodeEPNS0_18VariableAccessDataEm
__ZN3JSC3DFG13AbstractState16mergeStateAtTailERNS0_13AbstractValueES3_PNS0_4NodeE
__ZN3JSC3DFG13AbstractState17mergeToSuccessorsERNS0_5GraphEPNS0_10BasicBlockE
__ZN3JSC3DFG13AbstractState5mergeEPNS0_10BasicBlockES3_
__ZN3JSC3DFG13AbstractValue5mergeERKS1_
__ZN3JSC3DFG5Graph8dethreadEv
__ZN3JSC3DFG22CFGSimplificationPhase11mergeBlocksEjjj
__ZN3JSC3DFG5Graph17resetReachabilityEv
__ZN3JSC3DFG14SpeculativeJIT20emitAllocateJSObjectINS_22AbstractMacroAssemblerINS_12X86AssemblerEE13TrustedImmPtrES6_EEvNS_12X86Registers10RegisterIDES8_T_T0_S8_RNS5_8JumpListE
__ZN3JSC3DFG12slowPathCallINS_22AbstractMacroAssemblerINS_12X86AssemblerEE8JumpListEPFPNS_6JSCellEPNS_9ExecStateEPNS_9StructureEENS_12X86Registers10RegisterIDESB_EEN3WTF10PassOwnPtrINS0_17SlowPathGeneratorEEET_PNS0_14SpeculativeJITET0_T1_T2_NS0_18SpillRegistersModeE
__ZN3JSC3DFG21CallSlowPathGeneratorINS_22AbstractMacroAssemblerINS_12X86AssemblerEE8JumpListEPFPNS_6JSCellEPNS_9ExecStateEPNS_9StructureEENS_12X86Registers10RegisterIDEEC2ES5_PNS0_14SpeculativeJITESD_NS0_18SpillRegistersModeESF_
__ZN3JSC3DFG21CallSlowPathGeneratorINS_22AbstractMacroAssemblerINS_12X86AssemblerEE8JumpListEPFPNS_6JSCellEPNS_9ExecStateEPNS_9StructureEENS_12X86Registers10RegisterIDEED0Ev
__ZN3JSC3DFG21CallSlowPathGeneratorINS_22AbstractMacroAssemblerINS_12X86AssemblerEE8JumpListEPFPNS_6JSCellEPNS_9ExecStateEPNS_9StructureEENS_12X86Registers10RegisterIDEED1Ev
__ZN3JSC3DFG24JumpingSlowPathGeneratorINS_22AbstractMacroAssemblerINS_12X86AssemblerEE8JumpListEEC2ES5_PNS0_14SpeculativeJITE
__ZN3JSC3DFG14SpeculativeJIT27silentSpillAllRegistersImplIN3WTF6VectorINS0_22SilentRegisterSavePlanELm2ENS3_15CrashOnOverflowEEEEEvbRT_NS_12X86Registers10RegisterIDESB_NSA_13XMMRegisterIDE
__ZN3JSC3DFG14SpeculativeJIT20addSlowPathGeneratorEN3WTF10PassOwnPtrINS0_17SlowPathGeneratorEEE
__ZN3JSC3DFG14SpeculativeJIT22compileMovHintAndCheckEPNS0_4NodeE
__ZN3JSC3DFG14SpeculativeJIT27convertLastOSRExitToForwardERKNS_13ValueRecoveryE
__ZN3JSC3DFG14SpeculativeJIT18compileInlineStartEPNS0_4NodeE
__ZN3JSC3DFG14SpeculativeJIT23computeValueRecoveryForERKNS0_11ValueSourceE
__ZN3JSC3DFG17SlowPathGenerator8generateEPNS0_14SpeculativeJITE
__ZN3JSC3DFG14SpeculativeJIT13callOperationEPFPNS_6JSCellEPNS_9ExecStateEPNS_9StructureEENS_12X86Registers10RegisterIDES7_
__ZN3JSC3DFG24JumpingSlowPathGeneratorINS_22AbstractMacroAssemblerINS_12X86AssemblerEE8JumpListEE6jumpToEPNS0_14SpeculativeJITE
__ZNSt3__118__insertion_sort_3IRPFbRKN3JSC3DFG12MinifiedNodeES5_EPS3_EEvT0_SA_T_
__ZN3JSC3DFG14ByteCodeParser17constantUndefinedEv
__ZN3JSC3DFG14ByteCodeParser25getArrayModeAndEmitChecksEPNS_12ArrayProfileENS0_5Array6ActionEPNS0_4NodeE
__ZN3JSC3DFG9ArrayMode12fromObservedEPNS_12ArrayProfileENS0_5Array6ActionEb
__ZN3JSC3DFG31mightInlineFunctionForConstructEPNS_9CodeBlockE
__ZN3WTF6VectorIPN3JSC3DFG4NodeELm16ENS_15CrashOnOverflowEE15reserveCapacityEm
__ZN3WTF6VectorIN3JSC3DFG13AbstractValueELm16ENS_15CrashOnOverflowEE15reserveCapacityEm
__ZN3JSC3DFG14ByteCodeParser7setPairEiPNS0_4NodeEiS3_
__ZN3JSC13GetByIdStatus16computeFromLLIntEPNS_9CodeBlockEjRNS_10IdentifierE
__ZN3JSC13GetByIdStatusC2ENS0_5StateEbRKNS_12StructureSetEiNS_7JSValueEN3WTF6VectorIPNS_9StructureELm0ENS6_15CrashOnOverflowEEE
__ZN3WTF6VectorIN3JSC3DFG4EdgeELm16ENS_15CrashOnOverflowEE15reserveCapacityEm
__ZN3WTF6VectorINS_6OwnPtrIN3JSC3DFG10BasicBlockEEELm8ENS_15CrashOnOverflowEE15reserveCapacityEm
__ZN3WTF6VectorIPN3JSC3DFG18VariableAccessDataELm2ENS_15CrashOnOverflowEE15reserveCapacityEm
__ZN3JSC3DFG19CPSRethreadingPhase34canonicalizeFlushOrPhantomLocalForILNS0_8NodeTypeE15ELNS_11OperandKindE1EEEvPNS0_4NodeEPNS0_18VariableAccessDataEm
__ZNK3JSC3DFG9ArrayMode6refineEjjjj
__ZN3JSC3DFG10FixupPhase19blessArrayOperationENS0_4EdgeES2_RS2_
__ZN3JSC9CodeBlock15getArrayProfileEj
__ZN3JSC3DFG10FixupPhase10checkArrayENS0_9ArrayModeERKNS_10CodeOriginEPNS0_4NodeES7_PFbRKS2_E
__ZNK3JSC3DFG9ArrayMode22originalArrayStructureERNS0_5GraphERKNS_10CodeOriginE
__ZN3JSC3DFGL18lengthNeedsStorageERKNS0_9ArrayModeE
__ZN3JSC3DFGL13canCSEStorageERKNS0_9ArrayModeE
__ZN3JSC3DFG8CSEPhaseILNS0_7CSEModeE0EE23getByValLoadEliminationEPNS0_4NodeES5_
__ZN3JSC3DFG8CSEPhaseILNS0_7CSEModeE0EE21checkArrayEliminationEPNS0_4NodeENS0_9ArrayModeE
__ZN3JSC3DFG8CSEPhaseILNS0_7CSEModeE0EE40getIndexedPropertyStorageLoadEliminationEPNS0_4NodeENS0_9ArrayModeE
__ZN3JSC3DFG13AbstractState19clobberCapturedVarsERKNS_10CodeOriginE
__ZN3JSC3DFG13AbstractState13booleanResultEPNS0_4NodeERNS0_13AbstractValueE
__ZNK3JSC3DFG9ArrayMode14alreadyCheckedERNS0_5GraphEPNS0_4NodeERNS0_13AbstractValueE
__ZN3JSC3DFG14SpeculativeJIT8emitCallEPNS0_4NodeE
__ZN3JSC3DFG11JITCompiler24prepareForExceptionCheckEv
__ZN3JSC3DFG11JITCompiler9addJSCallENS_22AbstractMacroAssemblerINS_12X86AssemblerEE4CallES5_NS4_12DataLabelPtrENS_12CallLinkInfo8CallTypeENS_12X86Registers10RegisterIDENS_10CodeOriginE
__ZN3JSC3DFG14SpeculativeJIT30valueSourceReferenceForOperandEi
__ZN3JSC3DFG14SpeculativeJIT20silentSavePlanForGPRENS_15VirtualRegisterENS_12X86Registers10RegisterIDE
__ZN3JSC16SymbolTableEntry13addWatchpointEPNS_10WatchpointE
__ZN3JSC13WatchpointSet3addEPNS_10WatchpointE
__ZN3JSC3DFG14SpeculativeJIT13callOperationEPFvPNS_9ExecStateExxxENS_12X86Registers10RegisterIDES7_S7_
__ZN3JSC3DFG12CCallHelpers18setupStubArgumentsENS_12X86Registers10RegisterIDES3_S3_
__ZN3JSC3DFG12CCallHelpers16setupTwoStubArgsILNS_12X86Registers10RegisterIDE2ELS4_1EEEvS4_S4_
__ZN3JSC3DFG14SpeculativeJIT7compareEPNS0_4NodeENS_23MacroAssemblerX86Common19RelationalConditionENS4_15DoubleConditionEPFmPNS_9ExecStateExxE
__ZN3JSC3DFG14SpeculativeJIT21compilePeepHoleBranchEPNS0_4NodeENS_23MacroAssemblerX86Common19RelationalConditionENS4_15DoubleConditionEPFmPNS_9ExecStateExxE
__ZN3JSC3DFG14SpeculativeJIT20detectPeepHoleBranchEv
__ZN3JSC3DFG14SpeculativeJIT28nonSpeculativePeepholeBranchEPNS0_4NodeES3_NS_23MacroAssemblerX86Common19RelationalConditionEPFmPNS_9ExecStateExxE
__ZN3JSC3DFG14SpeculativeJIT13callOperationEPFmPNS_9ExecStateExxENS_12X86Registers10RegisterIDES7_S7_
__ZN3JSC3DFG14SpeculativeJIT9addBranchERKNS_22AbstractMacroAssemblerINS_12X86AssemblerEE4JumpEj
__ZN3JSC3DFG14SpeculativeJIT4jumpEjNS1_15FallThroughModeE
__ZN3JSC3DFG14SpeculativeJIT13callOperationEPFxPNS_9ExecStateExxENS_12X86Registers10RegisterIDES7_S7_
__ZN3JSC3DFG14SpeculativeJIT15compileStrictEqEPNS0_4NodeE
__ZN3JSC3DFG14SpeculativeJIT22nonSpeculativeStrictEqEPNS0_4NodeEb
__ZN3JSC3DFG14SpeculativeJIT30nonSpeculativePeepholeStrictEqEPNS0_4NodeES3_b
__ZN3JSC3DFG14SpeculativeJIT27silentSpillAllRegistersImplIN3WTF6VectorINS0_22SilentRegisterSavePlanELm0ENS3_15CrashOnOverflowEEEEEvbRT_NS_12X86Registers10RegisterIDESB_NSA_13XMMRegisterIDE
__ZN3JSC3DFG14SpeculativeJIT29terminateSpeculativeExecutionENS_8ExitKindENS0_11JSValueRegsEPNS0_4NodeE
__ZN3JSC3DFG14SpeculativeJIT19clearGenerationInfoEv
__ZN3JSC14MacroAssembler4moveENS_22AbstractMacroAssemblerINS_12X86AssemblerEE5Imm32ENS_12X86Registers10RegisterIDE
__ZN3JSC3DFG14SpeculativeJIT21compileGetArrayLengthEPNS0_4NodeE
__ZN3JSC3DFG14SpeculativeJIT28compilePeepHoleIntegerBranchEPNS0_4NodeES3_NS_23MacroAssemblerX86Common19RelationalConditionE
__ZN3JSC3DFG14SpeculativeJIT24fillSpeculateIntInternalILb1EEENS_12X86Registers10RegisterIDENS0_4EdgeERNS_10DataFormatE
__ZN3JSC3DFG14SpeculativeJIT32compileGetIndexedPropertyStorageEPNS0_4NodeE
__ZN3JSC3DFG14SpeculativeJIT23compileGetByValOnStringEPNS0_4NodeE
__ZN3JSC3DFG14SpeculativeJIT22fillSpeculateIntStrictENS0_4EdgeE
__ZN3JSC3DFG14SpeculativeJIT21compileStringEqualityEPNS0_4NodeE
__ZN3JSC3DFG12slowPathCallINS_22AbstractMacroAssemblerINS_12X86AssemblerEE8JumpListEPFxPNS_9ExecStateEPNS_6JSCellES9_ENS_12X86Registers10RegisterIDESD_SD_EEN3WTF10PassOwnPtrINS0_17SlowPathGeneratorEEET_PNS0_14SpeculativeJITET0_T1_T2_T3_NS0_18SpillRegistersModeE
__ZN3JSC3DFG42CallResultAndTwoArgumentsSlowPathGeneratorINS_22AbstractMacroAssemblerINS_12X86AssemblerEE8JumpListEPFxPNS_9ExecStateEPNS_6JSCellES9_ENS_12X86Registers10RegisterIDESD_SD_E16generateInternalEPNS0_14SpeculativeJITE
__ZN3JSC3DFG42CallResultAndTwoArgumentsSlowPathGeneratorINS_22AbstractMacroAssemblerINS_12X86AssemblerEE8JumpListEPFxPNS_9ExecStateEPNS_6JSCellES9_ENS_12X86Registers10RegisterIDESD_SD_EC2ES5_PNS0_14SpeculativeJITESB_NS0_18SpillRegistersModeESD_SD_SD_
__ZN3JSC3DFG42CallResultAndTwoArgumentsSlowPathGeneratorINS_22AbstractMacroAssemblerINS_12X86AssemblerEE8JumpListEPFxPNS_9ExecStateEPNS_6JSCellES9_ENS_12X86Registers10RegisterIDESD_SD_ED0Ev
__ZN3JSC3DFG42CallResultAndTwoArgumentsSlowPathGeneratorINS_22AbstractMacroAssemblerINS_12X86AssemblerEE8JumpListEPFxPNS_9ExecStateEPNS_6JSCellES9_ENS_12X86Registers10RegisterIDESD_SD_ED1Ev
__ZN3JSC3DFG42CallResultAndTwoArgumentsSlowPathGeneratorINS_22AbstractMacroAssemblerINS_12X86AssemblerEE8JumpListEPFxPNS_9ExecStateEPNS_7JSArrayEiENS_12X86Registers10RegisterIDESD_SD_E16generateInternalEPNS0_14SpeculativeJITE
__ZN3JSC3DFG42CallResultAndTwoArgumentsSlowPathGeneratorINS_22AbstractMacroAssemblerINS_12X86AssemblerEE8JumpListEPFxPNS_9ExecStateEPNS_7JSArrayEiENS_12X86Registers10RegisterIDESD_SD_EC2ES5_PNS0_14SpeculativeJITESB_NS0_18SpillRegistersModeESD_SD_SD_
__ZN3JSC3DFG42CallResultAndTwoArgumentsSlowPathGeneratorINS_22AbstractMacroAssemblerINS_12X86AssemblerEE8JumpListEPFxPNS_9ExecStateEPNS_7JSArrayEiENS_12X86Registers10RegisterIDESD_SD_ED0Ev
__ZN3JSC3DFG42CallResultAndTwoArgumentsSlowPathGeneratorINS_22AbstractMacroAssemblerINS_12X86AssemblerEE8JumpListEPFxPNS_9ExecStateEPNS_7JSArrayEiENS_12X86Registers10RegisterIDESD_SD_ED1Ev
__ZN3JSC3DFG42CallResultAndTwoArgumentsSlowPathGeneratorINS_22AbstractMacroAssemblerINS_12X86AssemblerEE8JumpListEPFxPNS_9ExecStateEiiENS_12X86Registers10RegisterIDEiSB_E16generateInternalEPNS0_14SpeculativeJITE
__ZN3JSC3DFG42CallResultAndTwoArgumentsSlowPathGeneratorINS_22AbstractMacroAssemblerINS_12X86AssemblerEE8JumpListEPFxPNS_9ExecStateEiiENS_12X86Registers10RegisterIDEiSB_EC2ES5_PNS0_14SpeculativeJITES9_NS0_18SpillRegistersModeESB_iSB_
__ZN3JSC3DFG42CallResultAndTwoArgumentsSlowPathGeneratorINS_22AbstractMacroAssemblerINS_12X86AssemblerEE8JumpListEPFxPNS_9ExecStateEiiENS_12X86Registers10RegisterIDEiSB_ED0Ev
__ZN3JSC3DFG42CallResultAndTwoArgumentsSlowPathGeneratorINS_22AbstractMacroAssemblerINS_12X86AssemblerEE8JumpListEPFxPNS_9ExecStateEiiENS_12X86Registers10RegisterIDEiSB_ED1Ev
__ZN3JSC3DFG42CallResultAndTwoArgumentsSlowPathGeneratorINS_22AbstractMacroAssemblerINS_12X86AssemblerEE8JumpListEPFxPNS_9ExecStateExPNS_10IdentifierEENS_12X86Registers10RegisterIDESD_S9_E16generateInternalEPNS0_14SpeculativeJITE
__ZN3JSC3DFG42CallResultAndTwoArgumentsSlowPathGeneratorINS_22AbstractMacroAssemblerINS_12X86AssemblerEE8JumpListEPFxPNS_9ExecStateExPNS_10IdentifierEENS_12X86Registers10RegisterIDESD_S9_EC2ES5_PNS0_14SpeculativeJITESB_NS0_18SpillRegistersModeESD_SD_S9_
__ZN3JSC3DFG42CallResultAndTwoArgumentsSlowPathGeneratorINS_22AbstractMacroAssemblerINS_12X86AssemblerEE8JumpListEPFxPNS_9ExecStateExPNS_10IdentifierEENS_12X86Registers10RegisterIDESD_S9_ED0Ev
__ZN3JSC3DFG42CallResultAndTwoArgumentsSlowPathGeneratorINS_22AbstractMacroAssemblerINS_12X86AssemblerEE8JumpListEPFxPNS_9ExecStateExPNS_10IdentifierEENS_12X86Registers10RegisterIDESD_S9_ED1Ev
__ZN3JSC3DFG21CallSlowPathGeneratorINS_22AbstractMacroAssemblerINS_12X86AssemblerEE8JumpListEPFxPNS_9ExecStateEPNS_6JSCellES9_ENS_12X86Registers10RegisterIDEEC2ES5_PNS0_14SpeculativeJITESB_NS0_18SpillRegistersModeESD_
__ZN3JSC3DFG21CallSlowPathGeneratorINS_22AbstractMacroAssemblerINS_12X86AssemblerEE8JumpListEPFxPNS_9ExecStateEPNS_6JSCellES9_ENS_12X86Registers10RegisterIDEED0Ev
__ZN3JSC3DFG21CallSlowPathGeneratorINS_22AbstractMacroAssemblerINS_12X86AssemblerEE8JumpListEPFxPNS_9ExecStateEPNS_6JSCellES9_ENS_12X86Registers10RegisterIDEED1Ev
__ZN3JSC3DFG14SpeculativeJIT10emitBranchEPNS0_4NodeE
__ZN3WTF6VectorIN3JSC3DFG14SpeculativeJIT12BranchRecordELm8ENS_15CrashOnOverflowEE15reserveCapacityEm
__ZN3JSC3DFG14SpeculativeJIT11silentSpillERKNS0_22SilentRegisterSavePlanE
__ZN3JSC3DFG14SpeculativeJIT10silentFillERKNS0_22SilentRegisterSavePlanENS_12X86Registers10RegisterIDE
__ZN3JSC3DFG14SpeculativeJIT13callOperationEPFPN3WTF10StringImplEPNS_9ExecStateEPNS_8JSStringEENS_12X86Registers10RegisterIDESC_
__ZN3JSC3DFG24JumpingSlowPathGeneratorINS_22AbstractMacroAssemblerINS_12X86AssemblerEE4JumpEE6jumpToEPNS0_14SpeculativeJITE
__ZN3JSC3DFG14SpeculativeJIT13callOperationEPFxPNS_9ExecStateEPNS_6JSCellES5_ENS_12X86Registers10RegisterIDES9_S9_
__ZN3JSC3DFG22linkCallThunkGeneratorEPNS_2VME
__ZN3JSC3DFGL21linkForThunkGeneratorEPNS_2VMENS_22CodeSpecializationKindE
__ZN3JSC3DFGL11slowPathForERNS0_12CCallHelpersEPNS_2VMEPFPcPNS_9ExecStateEE
_operationLinkCall
_linkFor
_operationPutByValNonStrict
_operationCompareEq
_operationGetByVal
__ZN3JSC3DFG10dfgLinkForEPNS_9ExecStateERNS_12CallLinkInfoEPNS_9CodeBlockEPNS_10JSFunctionENS_21MacroAssemblerCodePtrENS_22CodeSpecializationKindE
__ZN3JSC3DFG29linkClosureCallThunkGeneratorEPNS_2VME
__ZN3JSC13PutByIdStatus16computeFromLLIntEPNS_9CodeBlockEjRNS_10IdentifierE
__ZN3JSC3DFG14SpeculativeJIT13cachedGetByIdENS_10CodeOriginENS_12X86Registers10RegisterIDES4_jNS_22AbstractMacroAssemblerINS_12X86AssemblerEE4JumpENS0_18SpillRegistersModeE
__ZN3WTF6VectorIN3JSC3DFG22SilentRegisterSavePlanELm2ENS_15CrashOnOverflowEE15reserveCapacityEm
__ZN3JSC3DFG14SpeculativeJIT13usedRegistersEv
__ZN3JSC3DFG11JITCompiler17addPropertyAccessERKNS0_20PropertyAccessRecordE
__ZN3JSC3DFG14SpeculativeJIT13callOperationEPFxPNS_9ExecStateExPNS_10IdentifierEENS_12X86Registers10RegisterIDES9_S5_
__ZNK3JSC3DFG21CallSlowPathGeneratorINS_22AbstractMacroAssemblerINS_12X86AssemblerEE4JumpEPFxPNS_9ExecStateExPNS_10IdentifierEENS_12X86Registers10RegisterIDEE4callEv
_operationGetByIdOptimize
_operationGetByIdOptimizeWithReturnAddress
__ZN3JSC3DFG17dfgRepatchGetByIDEPNS_9ExecStateENS_7JSValueERKNS_10IdentifierERKNS_12PropertySlotERNS_17StructureStubInfoE
_operationGetByIdBuildList
_operationGetByIdBuildListWithReturnAddress
__ZN3JSC3DFG19dfgBuildGetByIDListEPNS_9ExecStateENS_7JSValueERKNS_10IdentifierERKNS_12PropertySlotERNS_17StructureStubInfoE
_compileOSRExit
__ZNK3JSC3DFG19VariableEventStream11reconstructEPNS_9CodeBlockENS_10CodeOriginERNS0_13MinifiedGraphEjRNS_8OperandsINS_13ValueRecoveryENS_18OperandValueTraitsIS8_EEEE
__ZN3WTF6VectorIN3JSC3DFG11ValueSourceELm8ENS_15CrashOnOverflowEE4fillERKS3_m
__ZN3WTF6VectorIN3JSC3DFG11ValueSourceELm16ENS_15CrashOnOverflowEE4fillERKS3_m
__ZN3JSC8OperandsINS_3DFG11ValueSourceENS_18OperandValueTraitsIS2_EEE10setOperandEiRKS2_
__ZN3WTF9HashTableIN3JSC3DFG10MinifiedIDENS_12KeyValuePairIS3_NS2_12_GLOBAL__N_122MinifiedGenerationInfoEEENS_24KeyValuePairKeyExtractorIS7_EENS2_14MinifiedIDHashENS_18HashMapValueTraitsINS_10HashTraitsIS3_EENSC_IS6_EEEESD_E4findERKS3_
__ZN3WTF9HashTableIN3JSC3DFG10MinifiedIDENS_12KeyValuePairIS3_NS2_12_GLOBAL__N_122MinifiedGenerationInfoEEENS_24KeyValuePairKeyExtractorIS7_EENS2_14MinifiedIDHashENS_18HashMapValueTraitsINS_10HashTraitsIS3_EENSC_IS6_EEEESD_E6expandEv
__ZN3WTF6VectorIN3JSC13ValueRecoveryELm8ENS_15CrashOnOverflowEE4fillERKS2_m
__ZN3WTF6VectorIN3JSC13ValueRecoveryELm16ENS_15CrashOnOverflowEE4fillERKS2_m
__ZN3WTF12VectorBufferIN3JSC13ValueRecoveryELm8EE4swapERS3_
__ZN3WTF12VectorBufferIN3JSC13ValueRecoveryELm16EE4swapERS3_
__ZNK3WTF7HashMapIN3JSC3DFG10MinifiedIDENS2_12_GLOBAL__N_122MinifiedGenerationInfoENS2_14MinifiedIDHashENS_10HashTraitsIS3_EENS7_IS5_EEE3getERKS3_
__ZN3JSC3DFG15OSRExitCompiler11compileExitERKNS0_7OSRExitERKNS_8OperandsINS_13ValueRecoveryENS_18OperandValueTraitsIS6_EEEEPNS0_19SpeculationRecoveryE
__ZN3JSC3DFG15OSRExitCompiler16handleExitCountsERKNS0_7OSRExitE
__ZN3JSC9CodeBlock35exitCountThresholdForReoptimizationEv
__ZN3JSC9CodeBlock38counterValueForOptimizeAfterLongWarmUpEv
__ZN3JSC16ExecutionCounter41applyMemoryUsageHeuristicsAndConvertToIntEiPNS_9CodeBlockE
__ZN3JSC3DFG15AssemblyHelpers17decodedCodeMapForEPNS_9CodeBlockE
__ZN3WTF9HashTableIPN3JSC9CodeBlockENS_12KeyValuePairIS3_NS_6VectorINS1_24BytecodeAndMachineOffsetELm0ENS_15CrashOnOverflowEEEEENS_24KeyValuePairKeyExtractorIS9_EENS_7PtrHashIS3_EENS_18HashMapValueTraitsINS_10HashTraitsIS3_EENSF_IS8_EEEESG_E16lookupForWritingINS_22IdentityHashTranslatorISD_EES3_EENSt3__14pairIPS9_bEERKT0_
__ZN3WTF9HashTableIPN3JSC9CodeBlockENS_12KeyValuePairIS3_NS_6VectorINS1_24BytecodeAndMachineOffsetELm0ENS_15CrashOnOverflowEEEEENS_24KeyValuePairKeyExtractorIS9_EENS_7PtrHashIS3_EENS_18HashMapValueTraitsINS_10HashTraitsIS3_EENSF_IS8_EEEESG_E3addINS_17HashMapTranslatorISI_SD_EES3_S8_EENS_18HashTableAddResultINS_17HashTableIteratorIS3_S9_SB_SD_SI_SG_EEEERKT0_RKT1_
__ZN3WTF9HashTableIPN3JSC9CodeBlockENS_12KeyValuePairIS3_NS_6VectorINS1_24BytecodeAndMachineOffsetELm0ENS_15CrashOnOverflowEEEEENS_24KeyValuePairKeyExtractorIS9_EENS_7PtrHashIS3_EENS_18HashMapValueTraitsINS_10HashTraitsIS3_EENSF_IS8_EEEESG_E6rehashEi
__ZN3WTF6VectorIN3JSC24BytecodeAndMachineOffsetELm0ENS_15CrashOnOverflowEEaSERKS4_
__ZN3WTF6VectorIN3JSC24BytecodeAndMachineOffsetELm0ENS_15CrashOnOverflowEE15reserveCapacityEm
__ZNK3JSC3DFG7OSRExit22codeLocationForRepatchEPNS_9CodeBlockE
_triggerReoptimizationNow
__ZN3JSC9CodeBlock10reoptimizeEv
__ZN3JSC9CodeBlock8jettisonEv
__ZN3JSC9CodeBlock22tallyFrequentExitSitesEv
__ZN3JSC19exitKindIsCountableENS_8ExitKindE
__ZN3JSC3DFG7OSRExit36considerAddingAsFrequentExitSiteSlowEPNS_9CodeBlockE
__ZN3JSC3DFG11ExitProfile3addERKNS0_16FrequentExitSiteE
__ZN3WTF6VectorIN3JSC3DFG16FrequentExitSiteELm0ENS_15CrashOnOverflowEE15reserveCapacityEm
__ZN3JSC17FunctionCodeBlock12jettisonImplEv
__ZN3JSC18FunctionExecutable28jettisonOptimizedCodeForCallERNS_2VME
__ZN3JSC4Heap20jettisonDFGCodeBlockEN3WTF10PassOwnPtrINS_9CodeBlockEEE
__ZN3JSC13DFGCodeBlocks8jettisonEN3WTF10PassOwnPtrINS_9CodeBlockEEE
_operationNewObject
__ZN3WTF9HashTableIN3JSC3DFG16FrequentExitSiteES3_NS_17IdentityExtractorENS2_20FrequentExitSiteHashENS_10HashTraitsIS3_EES7_E3addINS_22IdentityHashTranslatorIS5_EES3_S3_EENS_18HashTableAddResultINS_17HashTableIteratorIS3_S3_S4_S5_S7_S7_EEEERKT0_RKT1_
_operationGetById
_cti_op_new_object
__ZN3JSC4Yarr11InterpreterIhE20backtrackParenthesesERNS0_8ByteTermEPNS2_18DisjunctionContextE
__ZN3JSC4Yarr11InterpreterIhE23backtrackCharacterClassERNS0_8ByteTermEPNS2_18DisjunctionContextE
__ZN3JSC4Yarr11InterpreterIhE25backtrackPatternCharacterERNS0_8ByteTermEPNS2_18DisjunctionContextE
_cti_op_create_this
__ZN3JSC13PutByIdStatus10computeForERNS_2VMEPNS_14JSGlobalObjectEPNS_9StructureERNS_10IdentifierEb
__ZN3JSC9Structure33prototypeChainMayInterceptStoreToERNS_2VMENS_12PropertyNameE
__ZNK3JSC3DFG9ArrayMode14alreadyCheckedERNS0_5GraphEPNS0_4NodeERNS0_13AbstractValueEh
__ZN3JSC3DFG20ConstantFoldingPhase27addStructureTransitionCheckENS_10CodeOriginEjPNS_6JSCellE
__ZN3JSC3DFG14SpeculativeJIT15speculateObjectENS0_4EdgeE
__ZN3JSC12X86Assembler9movl_i32rEiNS_12X86Registers10RegisterIDE
__ZN3JSC3DFG12slowPathCallINS_22AbstractMacroAssemblerINS_12X86AssemblerEE8JumpListEPFxPNS_9ExecStateEPNS_7JSArrayEiENS_12X86Registers10RegisterIDESD_SD_EEN3WTF10PassOwnPtrINS0_17SlowPathGeneratorEEET_PNS0_14SpeculativeJITET0_T1_T2_T3_NS0_18SpillRegistersModeE
__ZN3JSC3DFG21CallSlowPathGeneratorINS_22AbstractMacroAssemblerINS_12X86AssemblerEE8JumpListEPFxPNS_9ExecStateEPNS_7JSArrayEiENS_12X86Registers10RegisterIDEEC2ES5_PNS0_14SpeculativeJITESB_NS0_18SpillRegistersModeESD_
__ZN3JSC3DFG21CallSlowPathGeneratorINS_22AbstractMacroAssemblerINS_12X86AssemblerEE8JumpListEPFxPNS_9ExecStateEPNS_7JSArrayEiENS_12X86Registers10RegisterIDEED0Ev
__ZN3JSC3DFG21CallSlowPathGeneratorINS_22AbstractMacroAssemblerINS_12X86AssemblerEE8JumpListEPFxPNS_9ExecStateEPNS_7JSArrayEiENS_12X86Registers10RegisterIDEED1Ev
__ZN3JSC3DFG14SpeculativeJIT13callOperationEPFxPNS_9ExecStateEPNS_7JSArrayEiENS_12X86Registers10RegisterIDES9_S9_
_operationGetByValArrayInt
__ZN3WTF6VectorIN3JSC11StringRangeELm16ENS_15CrashOnOverflowEE15reserveCapacityEm
__ZN3WTF6VectorINS_6StringELm16ENS_15CrashOnOverflowEE15reserveCapacityEm
__ZN3JSC17ConservativeRoots17genericAddPointerINS_17CompositeMarkHookINS_17JITStubRoutineSetENS_13DFGCodeBlocksEEEEEvPvNS_15TinyBloomFilterERT_
__ZN3JSC13DFGCodeBlocks4markEPv
__ZN3JSC17JITStubRoutineSet8markSlowEm
__ZN3WTF7HashMapImPN3JSC21GCAwareJITStubRoutineENS_7IntHashImEENS_10HashTraitsImEENS6_IS3_EEE4findERKm
__ZN3JSC13JSFinalObject13visitChildrenEPNS_6JSCellERNS_11SlotVisitorE
__ZN3JSC17StructureRareData13visitChildrenEPNS_6JSCellERNS_11SlotVisitorE
__ZN3JSC14StructureChain13visitChildrenEPNS_6JSCellERNS_11SlotVisitorE
__ZN3JSC14MarkStackArray6expandEv
__ZN3JSC17ProgramExecutable13visitChildrenEPNS_6JSCellERNS_11SlotVisitorE
__ZN3JSC9CodeBlock14visitAggregateERNS_11SlotVisitorE
__ZN3JSC18FunctionExecutable13visitChildrenEPNS_6JSCellERNS_11SlotVisitorE
__ZN3JSC9CodeBlock29stronglyVisitStrongReferencesERNS_11SlotVisitorE
__ZN3JSC13EvalCodeCache14visitAggregateERNS_11SlotVisitorE
__ZN3JSC9CodeBlock27stronglyVisitWeakReferencesERNS_11SlotVisitorE
__ZN3JSC9CodeBlock31performTracingFixpointIterationERNS_11SlotVisitorE
__ZN3JSC16JSCallbackObjectINS_20JSDestructibleObjectEE13visitChildrenEPNS_6JSCellERNS_11SlotVisitorE
__ZN3JSC18RegExpMatchesArray13visitChildrenEPNS_6JSCellERNS_11SlotVisitorE
__ZN3WTF9HashTableIPvS1_NS_17IdentityExtractorENS_7PtrHashIS1_EENS_10HashTraitsIS1_EES6_E16lookupForWritingINS_22IdentityHashTranslatorIS4_EES1_EENSt3__14pairIPS1_bEERKT0_
__ZThn16_N3JSC9CodeBlock19visitWeakReferencesERNS_11SlotVisitorE
__ZN3JSC9CodeBlock23finalizeUnconditionallyEv
__ZN3JSC17StructureStubInfo19visitWeakReferencesEv
__ZN3JSC30PolymorphicAccessStructureList9visitWeakEi
__ZN3JSC9CodeBlock17resetStubInternalERNS_13RepatchBufferERNS_17StructureStubInfoE
__ZN3JSC3JIT17resetPatchGetByIdERNS_13RepatchBufferEPNS_17StructureStubInfoE
__ZN3JSC17StructureStubInfo5derefEv
__ZN3JSC30PolymorphicAccessStructureListD2Ev
__ZN3JSC14JITStubRoutine19observeZeroRefCountEv
__ZN3JSC14JITStubRoutineD0Ev
__ZN3WTF19MetaAllocatorHandleD1Ev
__ZN3WTF19MetaAllocatorHandleD2Ev
__ZN3JSC30WatchpointsOnStructureStubInfoD1Ev
__ZN3JSC31StructureStubClearingWatchpointD0Ev
__ZN3JSC9CodeBlock7DFGDataD2Ev
__ZN3WTF15SegmentedVectorIN3JSC25JumpReplacementWatchpointELm1ELm0EED2Ev
__ZN3JSC25JumpReplacementWatchpointD1Ev
__ZN3WTF15SegmentedVectorIN3JSC3DFG7OSRExitELm8ELm32EE17deleteAllSegmentsEv
__ZN3WTF6VectorIN3JSC3DFG12OSREntryDataELm0ENS_15CrashOnOverflowEE6shrinkEm
__ZN3JSC21GCAwareJITStubRoutine19observeZeroRefCountEv
__ZN3WTF6VectorIN3JSC15InlineCallFrameELm4ENS_15CrashOnOverflowEED2Ev
__ZN3WTF7HashMapImPN3JSC21GCAwareJITStubRoutineENS_7IntHashImEENS_10HashTraitsImEENS6_IS3_EEE6removeENS_24HashTableIteratorAdapterINS_9HashTableImNS_12KeyValuePairImS3_EENS_24KeyValuePairKeyExtractorISD_EES5_NS_18HashMapValueTraitsIS7_S8_EES7_EESD_EE
__ZN3JSC21GCAwareJITStubRoutine12deleteFromGCEv
__ZN3JSC21GCAwareJITStubRoutineD0Ev
__ZN3JSC14JITStubRoutineD2Ev
__ZN3JSC18FunctionExecutable7destroyEPNS_6JSCellE
__ZN3JSC17ProgramExecutable7destroyEPNS_6JSCellE
__ZN3JSC17SharedSymbolTable7destroyEPNS_6JSCellE
__ZN3JSC10JSFunction7destroyEPNS_6JSCellE
__ZN3JSC19ResolveGlobalStatus10computeForEPNS_9CodeBlockEiPNS_16ResolveOperationERNS_10IdentifierE
__ZN3JSC13GetByIdStatus10computeForERNS_2VMEPNS_9StructureERNS_10IdentifierE
__ZN3JSC3DFG14SpeculativeJIT23emitObjectOrOtherBranchENS0_4EdgeEjj
__ZN3JSC3DFG14SpeculativeJIT9typeCheckENS0_13JSValueSourceENS0_4EdgeEjNS_22AbstractMacroAssemblerINS_12X86AssemblerEE4JumpE
__ZN3JSC28MethodOfGettingAValueProfile15fromLazyOperandEPNS_9CodeBlockERKNS_26LazyOperandValueProfileKeyE
__ZN3JSC3DFG12GPRTemporaryC1EPNS0_14SpeculativeJITERNS0_14JSValueOperandE
__ZN3JSC3DFG12GPRTemporaryC2EPNS0_14SpeculativeJITERNS0_14JSValueOperandE
__ZN3JSC3DFG12slowPathCallINS_22AbstractMacroAssemblerINS_12X86AssemblerEE8JumpListEPFxPNS_9ExecStateExPNS_10IdentifierEENS_12X86Registers10RegisterIDESD_S9_EEN3WTF10PassOwnPtrINS0_17SlowPathGeneratorEEET_PNS0_14SpeculativeJITET0_T1_T2_T3_NS0_18SpillRegistersModeE
__ZN3JSC3DFG21CallSlowPathGeneratorINS_22AbstractMacroAssemblerINS_12X86AssemblerEE8JumpListEPFxPNS_9ExecStateExPNS_10IdentifierEENS_12X86Registers10RegisterIDEEC2ES5_PNS0_14SpeculativeJITESB_NS0_18SpillRegistersModeESD_
__ZN3JSC3DFG21CallSlowPathGeneratorINS_22AbstractMacroAssemblerINS_12X86AssemblerEE8JumpListEPFxPNS_9ExecStateExPNS_10IdentifierEENS_12X86Registers10RegisterIDEED0Ev
__ZN3JSC3DFG21CallSlowPathGeneratorINS_22AbstractMacroAssemblerINS_12X86AssemblerEE8JumpListEPFxPNS_9ExecStateExPNS_10IdentifierEENS_12X86Registers10RegisterIDEED1Ev
__ZNK3JSC3DFG21CallSlowPathGeneratorINS_22AbstractMacroAssemblerINS_12X86AssemblerEE8JumpListEPFxPNS_9ExecStateExPNS_10IdentifierEENS_12X86Registers10RegisterIDEE4callEv
__ZN3JSC3DFG27linkConstructThunkGeneratorEPNS_2VME
__ZN3JSC3JIT17resetPatchPutByIdERNS_13RepatchBufferEPNS_17StructureStubInfoE
_operationLinkConstruct
__ZN3JSC3JIT25privateCompileClosureCallEPNS_12CallLinkInfoEPNS_9CodeBlockEPNS_9StructureEPNS_14ExecutableBaseENS_21MacroAssemblerCodePtrE
__ZN3JSC22ClosureCallStubRoutineC1ERKNS_21MacroAssemblerCodeRefERNS_2VMEPKNS_6JSCellEPNS_9StructureEPNS_14ExecutableBaseERKNS_10CodeOriginE
__ZN3JSC21GCAwareJITStubRoutineC2ERKNS_21MacroAssemblerCodeRefERNS_2VMEb
__ZN3JSC3DFG30virtualConstructThunkGeneratorEPNS_2VME
__ZN3JSC3DFGL24virtualForThunkGeneratorEPNS_2VMENS_22CodeSpecializationKindE
__ZN3JSC3DFG14SpeculativeJIT33nonSpeculativeNonPeepholeStrictEqEPNS0_4NodeEb
__ZN3JSC3DFG37CompareAndBoxBooleanSlowPathGeneratorINS_22AbstractMacroAssemblerINS_12X86AssemblerEE8JumpListEEC2ES5_PNS0_14SpeculativeJITEPFmPNS_9ExecStateExxENS_12X86Registers10RegisterIDESE_SE_
__ZN3JSC3DFG21CallSlowPathGeneratorINS_22AbstractMacroAssemblerINS_12X86AssemblerEE8JumpListEPFmPNS_9ExecStateExxENS_12X86Registers10RegisterIDEEC2ES5_PNS0_14SpeculativeJITES9_NS0_18SpillRegistersModeESB_
__ZN3JSC3DFG21CallSlowPathGeneratorINS_22AbstractMacroAssemblerINS_12X86AssemblerEE8JumpListEPFmPNS_9ExecStateExxENS_12X86Registers10RegisterIDEED0Ev
__ZN3JSC3DFG21CallSlowPathGeneratorINS_22AbstractMacroAssemblerINS_12X86AssemblerEE8JumpListEPFmPNS_9ExecStateExxENS_12X86Registers10RegisterIDEED1Ev
__ZN3JSC3DFG14SpeculativeJIT17compileLogicalNotEPNS0_4NodeE
__ZN3JSC3DFG14SpeculativeJIT20fillSpeculateBooleanENS0_4EdgeE
__ZN3JSC3DFG12GPRTemporaryC1EPNS0_14SpeculativeJITERNS0_23SpeculateBooleanOperandE
__ZN3JSC3DFG12GPRTemporaryC2EPNS0_14SpeculativeJITERNS0_23SpeculateBooleanOperandE
__ZN3JSC3DFG37CompareAndBoxBooleanSlowPathGeneratorINS_22AbstractMacroAssemblerINS_12X86AssemblerEE8JumpListEE16generateInternalEPNS0_14SpeculativeJITE
__ZN3JSC3DFG37CompareAndBoxBooleanSlowPathGeneratorINS_22AbstractMacroAssemblerINS_12X86AssemblerEE8JumpListEED0Ev
__ZN3JSC3DFG14SpeculativeJIT28compileNewFunctionExpressionEPNS0_4NodeE
__ZN3JSC3DFG14SpeculativeJIT13callOperationEPFPNS_6JSCellEPNS_9ExecStateES3_ENS_12X86Registers10RegisterIDES3_
_operationNewFunctionExpression
__ZN3JSC14StructureChain7destroyEPNS_6JSCellE
__ZN3JSC10Identifier4fromEPNS_9ExecStateEj
__ZN3JSC17PropertyNameArray3addEPN3WTF10StringImplE
__ZN3WTF9HashTableIPNS_10StringImplES2_NS_17IdentityExtractorENS_7PtrHashIS2_EENS_10HashTraitsIS2_EES7_E3addINS_22IdentityHashTranslatorIS5_EES2_S2_EENS_18HashTableAddResultINS_17HashTableIteratorIS2_S2_S3_S5_S7_S7_EEEERKT0_RKT1_
__ZN3WTF9HashTableIPNS_10StringImplES2_NS_17IdentityExtractorENS_7PtrHashIS2_EENS_10HashTraitsIS2_EES7_E16lookupForWritingINS_22IdentityHashTranslatorIS5_EES2_EENSt3__14pairIPS2_bEERKT0_
_cti_op_put_by_val_generic
____ZN3WTF17TCMalloc_PageHeap19initializeScavengerEv_block_invoke
__ZN3WTF17TCMalloc_PageHeap8scavengeEv
__ZN3JSC22ClosureCallStubRoutineD0Ev
__ZN3JSC21GCAwareJITStubRoutineD2Ev
__ZN3JSC13WatchpointSet15notifyWriteSlowEv
__ZN3JSC31StructureStubClearingWatchpoint12fireInternalEv
__ZN3JSC9CodeBlock9resetStubERNS_17StructureStubInfoE
__ZN3JSCL21arrayProtoFuncForEachEPNS_9ExecStateE
__ZN3JSC20JSCallbackObjectData8finalizeENS_6HandleINS_7UnknownEEEPv
_JSObjectSetPrivate
__ZN3JSC6JSCell7destroyEPS0_
__ZN3JSC16JSCallbackObjectINS_20JSDestructibleObjectEE7destroyEPNS_6JSCellE
__ZN3JSC20JSCallbackObjectDataD0Ev
__ZN3JSC20JSCallbackObjectDataD2Ev
_JSClassRelease
__ZN3JSC15WeakHandleOwnerD2Ev
__ZN3WTF7HashMapIPvN3JSC4WeakINS2_8JSObjectEEENS_7PtrHashIS1_EENS_10HashTraitsIS1_EENS8_IS5_EEE6removeERKS1_
__ZN3JSCL16mathProtoFuncMaxEPNS_9ExecStateE
_cti_op_call_NotJSFunction
__ZN3JSC25JumpReplacementWatchpoint12fireInternalEv
__ZN3JSC16JSCallbackObjectINS_20JSDestructibleObjectEE3putEPNS_6JSCellEPNS_9ExecStateENS_12PropertyNameENS_7JSValueERNS_15PutPropertySlotE
__ZN3JSC9BreakNode12emitBytecodeERNS_17BytecodeGeneratorEPNS_10RegisterIDE
__ZN3JSC12JSRopeString11RopeBuilder6expandEv
__ZNK3WTF6String5toIntEPb
__ZN3WTF10StringImpl5toIntEPb
__ZN3WTF15charactersToIntEPKhmPb
__ZN3WTFL14toIntegralTypeIihEET_PKT0_mPbi
__ZN3JSCL22stringProtoFuncIndexOfEPNS_9ExecStateE
__ZN3JSC12DateInstance7destroyEPNS_6JSCellE
__ZN3JSCL21arrayProtoFuncUnShiftEPNS_9ExecStateE
__ZN3JSC7unshiftILNS_7JSArray14ShiftCountModeE0EEEvPNS_9ExecStateEPNS_8JSObjectEjjjj
__ZN3JSC8JSObject22ensureArrayStorageSlowERNS_2VME
__ZNK3JSC9Structure31suggestedArrayStorageTransitionEv
__ZN3JSC8JSObject52constructConvertedArrayStorageWithoutCopyingElementsERNS_2VMEj
__ZN3JSC7JSArray28unshiftCountWithArrayStorageEPNS_9ExecStateEjjPNS_12ArrayStorageE
__ZN3JSC7JSArray20unshiftCountSlowCaseERNS_2VMEbj
__ZN3JSC7JSArray25setLengthWithArrayStorageEPNS_9ExecStateEjbPNS_12ArrayStorageE
__ZN3JSC11PostfixNode7emitDotERNS_17BytecodeGeneratorEPNS_10RegisterIDE
__ZN3JSC16JSCallbackObjectINS_20JSDestructibleObjectEE17customHasInstanceEPNS_8JSObjectEPNS_9ExecStateENS_7JSValueE
_JSValueUnprotect
__ZN3WTF9HashTableINS_6RefPtrINS_10StringImplEEENS_12KeyValuePairIS3_jEENS_24KeyValuePairKeyExtractorIS5_EEN3JSC17IdentifierRepHashENS_22KeyValuePairHashTraitsINS_10HashTraitsIS3_EENSB_IjEEEESC_E3addINS_17HashMapTranslatorISE_S9_EEPS2_jEENS_18HashTableAddResultINS_17HashTableIteratorIS3_S5_S7_S9_SE_SC_EEEERKT0_RKT1_
__ZN3WTF9HashTableINS_6RefPtrINS_10StringImplEEENS_12KeyValuePairIS3_jEENS_24KeyValuePairKeyExtractorIS5_EEN3JSC17IdentifierRepHashENS_22KeyValuePairHashTraitsINS_10HashTraitsIS3_EENSB_IjEEEESC_E6rehashEi
__ZNK3WTF6String5splitEtbRNS_6VectorIS0_Lm0ENS_15CrashOnOverflowEEE
__ZN3WTF6BigInt6appendEj
__ZN3JSC13LiteralParserItE13tryJSONPParseERN3WTF6VectorINS_9JSONPDataELm0ENS2_15CrashOnOverflowEEEb
__ZN3JSC13LiteralParserItE5Lexer3lexILNS_10ParserModeE2EEENS_9TokenTypeERNS_18LiteralParserTokenItEE
__ZN3JSC13LiteralParserItED2Ev
__ZN3JSC6ParserINS_5LexerItEEEC1EPNS_2VMERKNS_10SourceCodeEPNS_18FunctionParametersERKNS_10IdentifierENS_18JSParserStrictnessENS_12JSParserModeE
__ZN3JSC6ParserINS_5LexerItEEEC2EPNS_2VMERKNS_10SourceCodeEPNS_18FunctionParametersERKNS_10IdentifierENS_18JSParserStrictnessENS_12JSParserModeE
__ZN3JSC5LexerItEC1EPNS_2VME
__ZN3JSC5LexerItE7setCodeERKNS_10SourceCodeEPNS_11ParserArenaE
__ZN3JSC6ParserINS_5LexerItEEE9pushScopeEv
__ZN3JSC5LexerItE3lexEPNS_11JSTokenDataEPNS_15JSTokenLocationEjb
__ZN3JSC6ParserINS_5LexerItEEE5parseINS_11ProgramNodeEEEN3WTF10PassRefPtrIT_EERNS_11ParserErrorE
__ZN3JSC6ParserINS_5LexerItEEE10parseInnerEv
__ZN3JSC6ParserINS_5LexerItEEE19parseSourceElementsILNS_18SourceElementsModeE0ENS_10ASTBuilderEEENT0_14SourceElementsERS7_
__ZN3JSC6ParserINS_5LexerItEEE14parseStatementINS_10ASTBuilderEEENT_9StatementERS6_RPKNS_10IdentifierEPj
__ZN3JSC6ParserINS_5LexerItEEE24parseExpressionStatementINS_10ASTBuilderEEENT_9StatementERS6_
__ZN3JSC6ParserINS_5LexerItEEE15parseExpressionINS_10ASTBuilderEEENT_10ExpressionERS6_
__ZN3JSC6ParserINS_5LexerItEEE25parseAssignmentExpressionINS_10ASTBuilderEEENT_10ExpressionERS6_
__ZN3JSC6ParserINS_5LexerItEEE21parseMemberExpressionINS_10ASTBuilderEEENT_10ExpressionERS6_
__ZN3JSC6ParserINS_5LexerItEEE19parseVarDeclarationINS_10ASTBuilderEEENT_9StatementERS6_
__ZN3JSC6ParserINS_5LexerItEEE15declareVariableEPKNS_10IdentifierE
__ZN3JSC5LexerItE19lexExpectIdentifierEPNS_11JSTokenDataEPNS_15JSTokenLocationEjb
__ZN3JSC5LexerItE19parseStringSlowCaseILb1EEENS1_17StringParseResultEPNS_11JSTokenDataEb
__ZN3WTF6VectorItLm0ENS_15CrashOnOverflowEE6appendItEEvPKT_m
__ZN3WTF10StringImpl19createUninitializedEjRPt
__ZN3JSC6ParserINS_5LexerItEEE17parseFunctionInfoILNS_20FunctionRequirementsE0ELb0ENS_10ASTBuilderEEEbRT1_RPKNS_10IdentifierERNS7_19FormalParameterListERNS7_12FunctionBodyERjSH_RiSH_
__ZN3JSC6ParserINS_5LexerItEEE19parseSourceElementsILNS_18SourceElementsModeE0ENS_13SyntaxCheckerEEENT0_14SourceElementsERS7_
__ZN3JSC6ParserINS_5LexerItEEE14parseStatementINS_13SyntaxCheckerEEENT_9StatementERS6_RPKNS_10IdentifierEPj
__ZN3JSC6ParserINS_5LexerItEEE20parseReturnStatementINS_13SyntaxCheckerEEENT_9StatementERS6_
__ZN3JSC6ParserINS_5LexerItEEE15parseExpressionINS_13SyntaxCheckerEEENT_10ExpressionERS6_
__ZN3JSC6ParserINS_5LexerItEEE25parseAssignmentExpressionINS_13SyntaxCheckerEEENT_10ExpressionERS6_
__ZN3JSC6ParserINS_5LexerItEEE21parseMemberExpressionINS_13SyntaxCheckerEEENT_10ExpressionERS6_
__ZN3JSC6ParserINS_5LexerItEEE16popScopeInternalERNS_8ScopeRefEb
__ZN3JSC5LexerItE19parseStringSlowCaseILb0EEENS1_17StringParseResultEPNS_11JSTokenDataEb
__ZN3JSC6ParserINS_5LexerItEEE24parseFunctionDeclarationINS_10ASTBuilderEEENT_9StatementERS6_
__ZN3JSC6ParserINS_5LexerItEEE17parseFunctionInfoILNS_20FunctionRequirementsE1ELb1ENS_10ASTBuilderEEEbRT1_RPKNS_10IdentifierERNS7_19FormalParameterListERNS7_12FunctionBodyERjSH_RiSH_
__ZN3JSC6ParserINS_5LexerItEEE16parseIfStatementINS_13SyntaxCheckerEEENT_9StatementERS6_
__ZN3JSC6ParserINS_5LexerItEEE31parseExpressionOrLabelStatementINS_13SyntaxCheckerEEENT_9StatementERS6_
__ZN3JSC5LexerItE16nextTokenIsColonEv
__ZN3JSC6ParserINS_5LexerItEEE17parseForStatementINS_13SyntaxCheckerEEENT_9StatementERS6_
__ZN3JSC6ParserINS_5LexerItEEE19parseVarDeclarationINS_13SyntaxCheckerEEENT_9StatementERS6_
__ZN3JSC6ParserINS_5LexerItEEE19parseWhileStatementINS_13SyntaxCheckerEEENT_9StatementERS6_
__ZN3JSC6ParserINS_5LexerItEEE20parseSwitchStatementINS_13SyntaxCheckerEEENT_9StatementERS6_
__ZN3JSC6ParserINS_5LexerItEEE18parseSwitchClausesINS_13SyntaxCheckerEEENT_10ClauseListERS6_
__ZN3JSC6ParserINS_5LexerItEEE24parseSwitchDefaultClauseINS_13SyntaxCheckerEEENT_6ClauseERS6_
__ZN3JSC5LexerItE5clearEv
__ZN3JSC6ParserINS_5LexerItEEED1Ev
__ZN3JSC6ParserINS_5LexerItEEED2Ev
__ZN3JSC5LexerItED1Ev
__ZN3JSC17BytecodeGenerator25emitResolveWithBaseForPutEPNS_10RegisterIDES2_RKNS_13ResolveResultERKNS_10IdentifierERNS_19NonlocalResolveInfoE
__ZN3JSC16JSCallbackObjectINS_20JSDestructibleObjectEE14callbackGetterEPNS_9ExecStateENS_7JSValueENS_12PropertyNameE
__ZN3JSC6ParserINS_5LexerItEEE5parseINS_16FunctionBodyNodeEEEN3WTF10PassRefPtrIT_EERNS_11ParserErrorE
__ZN3JSC6ParserINS_5LexerItEEE16parseIfStatementINS_10ASTBuilderEEENT_9StatementERS6_
__ZN3JSC6ParserINS_5LexerItEEE31parseExpressionOrLabelStatementINS_10ASTBuilderEEENT_9StatementERS6_
__ZN3JSC6ParserINS_5LexerItEEE17parseForStatementINS_10ASTBuilderEEENT_9StatementERS6_
__ZN3JSC6ParserINS_5LexerItEEE19parseWhileStatementINS_10ASTBuilderEEENT_9StatementERS6_
__ZN3JSC6ParserINS_5LexerItEEE20parseReturnStatementINS_10ASTBuilderEEENT_9StatementERS6_
__ZN3JSC20MarkedArgumentBuffer10slowAppendENS_7JSValueE
__ZN3WTF9HashTableIPN3JSC20MarkedArgumentBufferES3_NS_17IdentityExtractorENS_7PtrHashIS3_EENS_10HashTraitsIS3_EES8_E3addINS_22IdentityHashTranslatorIS6_EES3_S3_EENS_18HashTableAddResultINS_17HashTableIteratorIS3_S3_S4_S6_S8_S8_EEEERKT0_RKT1_
__ZN3WTF7HashSetIPN3JSC20MarkedArgumentBufferENS_7PtrHashIS3_EENS_10HashTraitsIS3_EEE6removeENS_29HashTableConstIteratorAdapterINS_9HashTableIS3_S3_NS_17IdentityExtractorES5_S7_S7_EES3_EE
__ZN3JSC9Arguments7destroyEPNS_6JSCellE
__ZN3JSC6ParserINS_5LexerItEEE17parseFunctionInfoILNS_20FunctionRequirementsE0ELb0ENS_13SyntaxCheckerEEEbRT1_RPKNS_10IdentifierERNS7_19FormalParameterListERNS7_12FunctionBodyERjSH_RiSH_
__ZN3JSC6ParserINS_5LexerItEEE24parseExpressionStatementINS_13SyntaxCheckerEEENT_9StatementERS6_
__ZN3JSC10StackFrame20computeLineAndColumnERjS1_
_JSValueMakeNumber
__ZN3WTF7HashMapINSt3__14pairIPN3JSC8JSObjectEjEENS3_4WeakINS3_9StructureEEENS_8PairHashIS5_jEENS_10HashTraitsIS6_EENSC_IS9_EEE6removeERKS6_
__ZNK3JSC7JSValue20toThisObjectSlowCaseEPNS_9ExecStateE
__ZN3JSC6ParserINS_5LexerItEEE24parseFunctionDeclarationINS_13SyntaxCheckerEEENT_9StatementERS6_
__ZN3JSC6ParserINS_5LexerItEEE17parseFunctionInfoILNS_20FunctionRequirementsE1ELb1ENS_13SyntaxCheckerEEEbRT1_RPKNS_10IdentifierERNS7_19FormalParameterListERNS7_12FunctionBodyERjSH_RiSH_
__ZN3JSC5LexerItE10scanRegExpERPKNS_10IdentifierES5_t
__ZN3JSC6ParserINS_5LexerItEEE19parseBreakStatementINS_13SyntaxCheckerEEENT_9StatementERS6_
__ZN3JSC6ParserINS_5LexerItEEE17parseTryStatementINS_13SyntaxCheckerEEENT_9StatementERS6_
__ZN3JSC6ParserINS_5LexerItEEE19parseThrowStatementINS_13SyntaxCheckerEEENT_9StatementERS6_
__ZN3JSC6ParserINS_5LexerItEEE22parseContinueStatementINS_13SyntaxCheckerEEENT_9StatementERS6_
__ZN3JSC6ParserINS_5LexerItEEE21parseDoWhileStatementINS_13SyntaxCheckerEEENT_9StatementERS6_
__ZN3JSC15IdentifierArena21makeNumericIdentifierEPNS_2VMEd
__ZN3JSCL25functionProtoFuncToStringEPNS_9ExecStateE
__ZN3JSC16InternalFunction4nameEPNS_9ExecStateE
__ZN3JSC22jsMakeNontrivialStringIPKcN3WTF6StringES2_EENS_7JSValueEPNS_9ExecStateET_T0_T1_
__ZN3JSC17NumberConstructor18getOwnPropertySlotEPNS_6JSCellEPNS_9ExecStateENS_12PropertyNameERNS_12PropertySlotE
__ZN3JSC18getStaticValueSlotINS_17NumberConstructorENS_16InternalFunctionEEEbPNS_9ExecStateEPKNS_9HashTableEPT_NS_12PropertyNameERNS_12PropertySlotE
__ZN3JSC17RegExpConstructor18getOwnPropertySlotEPNS_6JSCellEPNS_9ExecStateENS_12PropertyNameERNS_12PropertySlotE
__ZN3JSC18getStaticValueSlotINS_17RegExpConstructorENS_16InternalFunctionEEEbPNS_9ExecStateEPKNS_9HashTableEPT_NS_12PropertyNameERNS_12PropertySlotE
__ZN3JSC6ParserINS_5LexerItEEE17parseTryStatementINS_10ASTBuilderEEENT_9StatementERS6_
__ZN3WTF6VectorINS_6RefPtrIN3JSC10RegisterIDEEELm16ENS_20UnsafeVectorOverflowEE15reserveCapacityEm
__ZN3JSC26fromCharCodeThunkGeneratorEPNS_2VME
__ZN3JSCL18stringFromCharCodeEPNS_9ExecStateE
__ZN3JSC23jsSingleCharacterStringEPNS_9ExecStateEt
__ZN3JSC14MacroAssembler4or32ENS_22AbstractMacroAssemblerINS_12X86AssemblerEE5Imm32ENS_12X86Registers10RegisterIDE
__ZN3JSC16ErrorConstructor16getConstructDataEPNS_6JSCellERNS_13ConstructDataE
__ZN3JSCL29constructWithErrorConstructorEPNS_9ExecStateE
__ZN3JSC13ErrorInstance6createEPNS_9ExecStateEPNS_9StructureENS_7JSValueE
__ZN3JSC13ErrorInstanceC1ERNS_2VMEPNS_9StructureE
__ZN3JSC15globalFuncIsNaNEPNS_9ExecStateE
__ZN3WTF6VectorIPN3JSC14ExpressionNodeELm16ENS_15CrashOnOverflowEE15reserveCapacityEm
__ZN3WTF6VectorINS_6RefPtrIN3JSC10RegisterIDEEELm16ENS_15CrashOnOverflowEE15reserveCapacityEm
__ZN3WTF13StringBuilder12appendNumberEi
__ZNKO3WTF6String12isolatedCopyEv
__ZN3WTF6StringC1EPKt
__ZN3WTF6StringC2EPKt
__ZN3WTF10StringImpl8endsWithEPS0_b
__ZN3WTF15charactersToIntEPKtmPb
__ZN3WTFL14toIntegralTypeIitEET_PKT0_mPbi
__ZN3WTF13StringBuilder23allocateBufferUpConvertEPKhj
__ZN3WTF13StringBuilder16reallocateBufferItEEvj
__ZN3WTF10StringImpl10reallocateENS_10PassRefPtrIS0_EEjRPt
__ZN3WTF16callOnMainThreadERKNS_8FunctionIFvvEEE
__ZN3WTFL10timerFiredEP16__CFRunLoopTimerPv
__ZN3WTFL18callFunctionObjectEPv
__ZNK3WTF6String8toDoubleEPb
__ZN3WTF10StringImpl8toDoubleEPb
__ZN3WTF13StringBuilder23appendUninitializedSlowItEEPT_j
__ZN3JSC20EvalFunctionCallNode12emitBytecodeERNS_17BytecodeGeneratorEPNS_10RegisterIDE
__ZN3JSC17BytecodeGenerator12emitCallEvalEPNS_10RegisterIDES2_RNS_13CallArgumentsEjjjjj
__ZN3JSC4evalEPNS_9ExecStateE
__ZN3JSC13LiteralParserItE5Lexer4nextEv
__ZN3JSC13LiteralParserItE5Lexer3lexILNS_10ParserModeE1EEENS_9TokenTypeERNS_18LiteralParserTokenItEE
__ZN3JSC13LiteralParserItE5parseENS_11ParserStateE
__ZN3JSC17UnlinkedCodeBlock16codeCacheForEvalEv
__ZN3JSC13EvalCodeCache7getSlowEPNS_9ExecStateEPNS_9CodeCacheEPNS_16ScriptExecutableEbRKN3WTF6StringEPNS_7JSScopeERNS_7JSValueE
__ZN3JSC14EvalExecutable6createEPNS_9ExecStateEN3WTF10PassRefPtrINS_9CodeCacheEEERKNS_10SourceCodeEb
__ZN3JSC14EvalExecutableC1EPNS_9ExecStateEN3WTF10PassRefPtrINS_9CodeCacheEEERKNS_10SourceCodeEb
__ZN3JSC14EvalExecutable15compileInternalEPNS_9ExecStateEPNS_7JSScopeENS_7JITCode7JITTypeEj
__ZN3JSC14JSGlobalObject19createEvalCodeBlockEPNS_9CodeCacheEPNS_9ExecStateEPNS_7JSScopeEPNS_14EvalExecutableEPPNS_8JSObjectE
__ZN3JSC9CodeCache16getEvalCodeBlockERNS_2VMEPNS_7JSScopeEPNS_14EvalExecutableERKNS_10SourceCodeENS_18JSParserStrictnessENS_12DebuggerModeENS_12ProfilerModeERNS_11ParserErrorE
__ZN3JSC9CodeCache12getCodeBlockINS_21UnlinkedEvalCodeBlockENS_14EvalExecutableEEEPT_RNS_2VMEPNS_7JSScopeEPT0_RKNS_10SourceCodeENS_18JSParserStrictnessENS_12DebuggerModeENS_12ProfilerModeERNS_11ParserErrorE
__ZN3JSC9CodeCache16generateBytecodeINS_21UnlinkedEvalCodeBlockENS_14EvalExecutableEEEPT_RNS_2VMEPNS_7JSScopeEPT0_RKNS_10SourceCodeENS_18JSParserStrictnessENS_12DebuggerModeENS_12ProfilerModeERNS_11ParserErrorE
__ZN3JSC5parseINS_8EvalNodeEEEN3WTF10PassRefPtrIT_EEPNS_2VMERKNS_10SourceCodeEPNS_18FunctionParametersERKNS_10IdentifierENS_18JSParserStrictnessENS_12JSParserModeERNS_11ParserErrorE
__ZN3JSC6ParserINS_5LexerItEEE5parseINS_8EvalNodeEEEN3WTF10PassRefPtrIT_EERNS_11ParserErrorE
__ZN3JSC8EvalNode6createEPNS_2VMERKNS_15JSTokenLocationES5_jPNS_14SourceElementsEPN3WTF6VectorINSt3__14pairIPKNS_10IdentifierEjEELm0ENS8_15CrashOnOverflowEEEPNS9_IPNS_16FunctionBodyNodeELm0ESG_EERNS8_7HashSetINS8_6RefPtrINS8_10StringImplEEENS_17IdentifierRepHashENS8_10HashTraitsISQ_EEEERKNS_10SourceCodeEji
__ZN3JSC21UnlinkedEvalCodeBlock6createEPNS_2VMERKNS_14ExecutableInfoE
__ZN3JSC17BytecodeGeneratorC1ERNS_2VMEPNS_7JSScopeEPNS_8EvalNodeEPNS_21UnlinkedEvalCodeBlockENS_12DebuggerModeENS_12ProfilerModeE
__ZN3JSC17BytecodeGeneratorC2ERNS_2VMEPNS_7JSScopeEPNS_8EvalNodeEPNS_21UnlinkedEvalCodeBlockENS_12DebuggerModeENS_12ProfilerModeE
__ZN3JSC8EvalNode12emitBytecodeERNS_17BytecodeGeneratorEPNS_10RegisterIDE
__ZThn24_N3JSC8EvalNodeD0Ev
__ZN3JSC5LLInt17getEvalEntrypointERNS_2VMERNS_7JITCodeE
__ZN3JSC5LLInt23evalEntryThunkGeneratorEPNS_2VME
__ZN3JSC11Interpreter7executeEPNS_14EvalExecutableEPNS_9ExecStateENS_7JSValueEPNS_7JSScopeE
__ZN3JSCL21stringProtoFuncSubstrEPNS_9ExecStateE
__ZN3JSC10ASTBuilder11makeDivNodeERKNS_15JSTokenLocationEPNS_14ExpressionNodeES5_b
__ZN3JSC19roundThunkGeneratorEPNS_2VME
__ZNK3JSC12JSRopeString19resolveRopeSlowCaseEPt
__ZN3JSC7JSScope30resolveContainingScopeInternalILNS0_10LookupModeE1ELNS0_12ReturnValuesE5EEEPNS_8JSObjectEPNS_9ExecStateERKNS_10IdentifierERNS_12PropertySlotEPN3WTF6VectorINS_16ResolveOperationELm0ENSD_15CrashOnOverflowEEEPNS_18PutToBaseOperationEb
__ZN3JSC5LexerIhE19parseStringSlowCaseILb1EEENS1_17StringParseResultEPNS_11JSTokenDataEb
__ZN3JSC11MarkedSpace9freeBlockEPNS_11MarkedBlockE
__ZN3JSC15MarkedAllocator11removeBlockEPNS_11MarkedBlockE
__ZN3WTF7HashSetIPN3JSC11MarkedBlockENS_15MarkedBlockHashENS_10HashTraitsIS3_EEE6removeERKS3_
__ZN3JSC7WeakSetD1Ev
__ZN3JSC16NativeExecutable7destroyEPNS_6JSCellE
__ZN3JSC11RegExpCache8finalizeENS_6HandleINS_7UnknownEEEPv
__ZN3JSC6RegExp14invalidateCodeEv
__ZN3JSC6RegExp7destroyEPNS_6JSCellE
__ZN3JSC4Yarr13YarrCodeBlockD2Ev
__ZN3JSC17RegExpConstructor7destroyEPNS_6JSCellE
__ZN3JSC4Heap14FinalizerOwner8finalizeENS_6HandleINS_7UnknownEEEPv
__ZN3JSC14JSGlobalObject7destroyEPNS_6JSCellE
__ZN3JSC14JSGlobalObjectD2Ev
__ZN3JSC13WatchpointSetD1Ev
__ZN3WTF15SegmentedVectorIN3JSC12WriteBarrierINS1_7UnknownEEELm16ELm32EED2Ev
__Z22TCMalloc_SystemReleasePvm
__ZN3JSC9Arguments13visitChildrenEPNS_6JSCellERNS_11SlotVisitorE
__ZN3JSC14EvalExecutable9clearCodeEv
__ZN3JSC13EvalCodeBlockD0Ev
__ZN3JSC14EvalExecutable7destroyEPNS_6JSCellE
__ZN3JSC3JIT22emit_op_put_scoped_varEPNS_11InstructionE
_cti_op_put_by_id_generic
__ZN3JSC3JIT26privateCompileGetByIdChainEPNS_17StructureStubInfoEPNS_9StructureEPNS_14StructureChainEmRKNS_10IdentifierERKNS_12PropertySlotEiNS_16ReturnAddressPtrEPNS_9ExecStateE
__ZN3JSC19InlineWatchpointSet7freeFatEv
__ZN3JSC3JIT19emit_op_jngreatereqEPNS_11InstructionE
__ZN3JSC3JIT23emitSlow_op_jngreatereqEPNS_11InstructionERPNS_13SlowCaseEntryE
_cti_op_add
__ZN3WTFL24initializeMainThreadOnceEv
__ZN3WTF28initializeMainThreadPlatformEv
__ZN3WTF6VectorINS_6StringELm0ENS_15CrashOnOverflowEE14expandCapacityEm
__ZN3WTF6String6appendEh
__ZN3WTF10fastStrDupEPKc
__ZN3WTF15BinarySemaphoreC1Ev
__ZN3JSC3DFG14ByteCodeParser8getScopeEbj
__ZN3JSC3DFG8CSEPhaseILNS0_7CSEModeE0EE24scopedVarLoadEliminationEPNS0_4NodeEj
__ZN3JSC3DFG14ByteCodeParser21getJSConstantForValueENS_7JSValueE
__ZN3JSC9CodeBlock17addOrFindConstantENS_7JSValueE
__ZN3WTF6VectorIjLm2ENS_15CrashOnOverflowEE15reserveCapacityEm
__ZN3JSC3DFG5Graph23valueAddSpeculationModeEPNS0_4NodeE
__ZN3JSC3DFG10FixupPhase26attemptToMakeFastStringAddILNS0_7UseKindE11EEEbPNS0_4NodeERNS0_4EdgeES7_
__ZN3JSC3DFG10FixupPhase19convertStringAddUseILNS0_7UseKindE11EEEvPNS0_4NodeERNS0_4EdgeE
__ZN3JSC3DFG19resultOfToPrimitiveEj
__ZN3JSC3DFG10FixupPhase16fixupToPrimitiveEPNS0_4NodeE
__ZN3JSC3DFG10FixupPhase13fixupToStringEPNS0_4NodeE
__ZN3JSC3DFG10FixupPhase13fixupMakeRopeEPNS0_4NodeE
__ZN3JSC3DFG8CSEPhaseILNS0_7CSEModeE0EE24setLocalStoreEliminationENS_15VirtualRegisterEPNS0_4NodeE
__ZN3JSC3DFG8CSEPhaseILNS0_7CSEModeE0EE23getLocalLoadEliminationENS_15VirtualRegisterERPNS0_4NodeEb
__ZN3JSC3DFG19CPSRethreadingPhase34canonicalizeFlushOrPhantomLocalForILNS0_8NodeTypeE16ELNS_11OperandKindE1EEEvPNS0_4NodeEPNS0_18VariableAccessDataEm
__ZN3JSC3DFG14SpeculativeJIT15compileArithSubEPNS0_4NodeE
__ZN3JSC14MacroAssembler11branchSub32ENS_23MacroAssemblerX86Common15ResultConditionENS_12X86Registers10RegisterIDENS_22AbstractMacroAssemblerINS_12X86AssemblerEE5Imm32ES4_S4_
__ZN3JSC3DFG14SpeculativeJIT15speculateStringENS0_4EdgeE
__ZN3JSC3DFG14SpeculativeJIT14speculateInt32ENS0_4EdgeE
__ZN3JSC3DFG14SpeculativeJIT13callOperationEPFPNS_6JSCellEPNS_9ExecStateExENS_12X86Registers10RegisterIDES9_
__ZN3JSC3DFG14SpeculativeJIT15compileMakeRopeEPNS0_4NodeE
__ZN3JSC3DFG12slowPathCallINS_22AbstractMacroAssemblerINS_12X86AssemblerEE8JumpListEPFPNS_6JSCellEPNS_9ExecStateEPNS_8JSStringEPNS_9StructureEENS_12X86Registers10RegisterIDESH_SD_EEN3WTF10PassOwnPtrINS0_17SlowPathGeneratorEEET_PNS0_14SpeculativeJITET0_T1_T2_T3_NS0_18SpillRegistersModeE
__ZN3JSC3DFG12slowPathCallINS_22AbstractMacroAssemblerINS_12X86AssemblerEE8JumpListEPFPNS_6JSCellEPNS_9ExecStateEPNS_8JSStringESB_ENS_12X86Registers10RegisterIDESF_SF_EEN3WTF10PassOwnPtrINS0_17SlowPathGeneratorEEET_PNS0_14SpeculativeJITET0_T1_T2_T3_NS0_18SpillRegistersModeE
__ZN3JSC3DFG12slowPathCallINS_22AbstractMacroAssemblerINS_12X86AssemblerEE8JumpListEPFPNS_6JSCellEPNS_9ExecStateEPNS_8JSStringESB_SB_ENS_12X86Registers10RegisterIDESF_SF_SF_EEN3WTF10PassOwnPtrINS0_17SlowPathGeneratorEEET_PNS0_14SpeculativeJITET0_T1_T2_T3_T4_NS0_18SpillRegistersModeE
__ZN3JSC3DFG14SpeculativeJIT13cachedPutByIdENS_10CodeOriginENS_12X86Registers10RegisterIDES4_NS0_4EdgeES4_jNS_7PutKindENS_22AbstractMacroAssemblerINS_12X86AssemblerEE4JumpE
__ZN3JSC3DFG14SpeculativeJIT12writeBarrierENS_12X86Registers10RegisterIDES3_NS0_4EdgeENS_19WriteBarrierUseKindES3_S3_
__ZN3JSC3DFG14SpeculativeJIT13callOperationEPFPNS_6JSCellEPNS_9ExecStateEPNS_8JSStringES7_ENS_12X86Registers10RegisterIDESB_SB_
__ZN3JSC3DFG14SpeculativeJIT13callOperationEPFvPNS_9ExecStateExPNS_6JSCellEPNS_10IdentifierEENS_12X86Registers10RegisterIDESB_S7_
__ZNK3JSC3DFG21CallSlowPathGeneratorINS_22AbstractMacroAssemblerINS_12X86AssemblerEE4JumpEPFvPNS_9ExecStateExPNS_6JSCellEPNS_10IdentifierEENS0_11NoResultTagEE4callEv
_operationToString
_operationPutByIdNonStrictOptimize
_operationPutByIdNonStrictOptimizeWithReturnAddress
__ZN3JSC3DFG17dfgRepatchPutByIDEPNS_9ExecStateENS_7JSValueERKNS_10IdentifierERKNS_15PutPropertySlotERNS_17StructureStubInfoENS_7PutKindE
_operationPutByIdNonStrict
__ZN3WTF20ThreadIdentifierData8destructEPv
__ZN3WTF13threadDidExitEj
__ZN3WTF20TCMalloc_ThreadCache18DestroyThreadCacheEPv
__ZN3WTF20TCMalloc_ThreadCache11DeleteCacheEPS0_
__ZN3WTF14FastMallocZone4sizeEP14_malloc_zone_tPKv
__ZN3WTF17equalIgnoringCaseEPKtPKhj
__ZN3JSC14JSGlobalObject16putDirectVirtualEPNS_8JSObjectEPNS_9ExecStateENS_12PropertyNameENS_7JSValueEj
__ZN3JSC28symbolTablePutWithAttributesINS_14JSGlobalObjectEEEbPT_RNS_2VMENS_12PropertyNameENS_7JSValueEj
__ZN3JSCL21stringProtoFuncSearchEPNS_9ExecStateE
__ZN3JSC6ParserINS_5LexerItEEE22parseContinueStatementINS_10ASTBuilderEEENT_9StatementERS6_
__ZN3JSC6ParserINS_5LexerItEEE19parseBreakStatementINS_10ASTBuilderEEENT_9StatementERS6_
__ZN3WTF6VectorIPN3JSC8JSObjectELm4ENS_15CrashOnOverflowEE15reserveCapacityEm
__ZN3WTF15BinarySemaphore4waitEd
__ZN3WTF15BinarySemaphore6signalEv
__ZN3JSCL19arrayProtoFuncShiftEPNS_9ExecStateE
__ZN3JSC5shiftILNS_7JSArray14ShiftCountModeE0EEEvPNS_9ExecStateEPNS_8JSObjectEjjjj
__ZN3JSC7JSArray26shiftCountWithArrayStorageEjjPNS_12ArrayStorageE
__ZN3JSCL17arrayProtoFuncPopEPNS_9ExecStateE
__ZN3JSC7JSArray3popEPNS_9ExecStateE
__ZN3JSC7JSArray27getOwnNonIndexPropertyNamesEPNS_8JSObjectEPNS_9ExecStateERNS_17PropertyNameArrayENS_15EnumerationModeE
__ZN3JSC5LexerItE24parseFourDigitUnicodeHexEv
_JSObjectGetPrivateProperty
__ZNK3JSC20JSCallbackObjectData18getPrivatePropertyERKNS_10IdentifierE
__ZN3JSC8JSObject19putDirectMayBeIndexEPNS_9ExecStateENS_12PropertyNameENS_7JSValueE
__ZN3WTF6VectorINSt3__14pairINS_6RefPtrINS_10StringImplEEEjEELm4ENS_15CrashOnOverflowEE15reserveCapacityEm
_JSObjectSetPrivateProperty
__ZN3JSC20JSCallbackObjectData18setPrivatePropertyERNS_2VMEPNS_6JSCellERKNS_10IdentifierENS_7JSValueE
__ZN3WTF9HashTableINS_6RefPtrINS_10StringImplEEENS_12KeyValuePairIS3_N3JSC12WriteBarrierINS5_7UnknownEEEEENS_24KeyValuePairKeyExtractorIS9_EENS5_17IdentifierRepHashENS_22KeyValuePairHashTraitsINS_10HashTraitsIS3_EENSE_IS8_EEEESF_E3addINS_17HashMapTranslatorISH_SC_EEPS2_S8_EENS_18HashTableAddResultINS_17HashTableIteratorIS3_S9_SB_SC_SH_SF_EEEERKT0_RKT1_
__ZN3WTF9HashTableINS_6RefPtrINS_10StringImplEEENS_12KeyValuePairIS3_N3JSC12WriteBarrierINS5_7UnknownEEEEENS_24KeyValuePairKeyExtractorIS9_EENS5_17IdentifierRepHashENS_22KeyValuePairHashTraitsINS_10HashTraitsIS3_EENSE_IS8_EEEESF_E6rehashEi
__ZN3JSCL20arrayProtoFuncFilterEPNS_9ExecStateE
__ZN3WTF17charactersToFloatEPKhmRm
__ZN3JSC4Yarr12ByteCompiler12assertionBOLEj
__ZN3JSC4Yarr12ByteCompiler22alternativeDisjunctionEv
__ZN3JSC8JSObject48putDirectIndexBeyondVectorLengthWithArrayStorageEPNS_9ExecStateEjNS_7JSValueEjNS_18PutDirectIndexModeEPNS_12ArrayStorageE
__ZN3JSC8JSObject20increaseVectorLengthERNS_2VMEj
__ZN3JSC6ParserINS_5LexerIhEEE20parseSwitchStatementINS_10ASTBuilderEEENT_9StatementERS6_
__ZN3JSC6ParserINS_5LexerIhEEE18parseSwitchClausesINS_10ASTBuilderEEENT_10ClauseListERS6_
__ZN3JSC6ParserINS_5LexerIhEEE24parseSwitchDefaultClauseINS_10ASTBuilderEEENT_6ClauseERS6_
__ZN3JSC10SwitchNode12emitBytecodeERNS_17BytecodeGeneratorEPNS_10RegisterIDE
__ZN3JSC13CaseBlockNode20emitBytecodeForBlockERNS_17BytecodeGeneratorEPNS_10RegisterIDES4_
__ZN3JSC13CaseBlockNode14tryTableSwitchERN3WTF6VectorIPNS_14ExpressionNodeELm8ENS1_15CrashOnOverflowEEERiS8_
__ZN3JSCL17processClauseListEPNS_14ClauseListNodeERN3WTF6VectorIPNS_14ExpressionNodeELm8ENS2_15CrashOnOverflowEEERNS_10SwitchKindERbRiSC_
__ZN3WTF6VectorINS_6RefPtrIN3JSC5LabelEEELm8ENS_15CrashOnOverflowEE15reserveCapacityEm
__ZN3JSC17BytecodeGenerator11beginSwitchEPNS_10RegisterIDENS_10SwitchInfo10SwitchTypeE
__ZN3WTF6VectorIN3JSC10SwitchInfoELm0ENS_15CrashOnOverflowEE15reserveCapacityEm
__ZN3JSC17BytecodeGenerator9endSwitchEjPN3WTF6RefPtrINS_5LabelEEEPPNS_14ExpressionNodeEPS3_ii
__ZN3JSC17UnlinkedCodeBlock24addStringSwitchJumpTableEv
__ZN3WTF6VectorIN3JSC23UnlinkedStringJumpTableELm0ENS_15CrashOnOverflowEE14appendSlowCaseIS2_EEvRKT_
__ZN3WTF6VectorIN3JSC23UnlinkedStringJumpTableELm0ENS_15CrashOnOverflowEE15reserveCapacityEm
__ZN3WTF11VectorMoverILb0EN3JSC23UnlinkedStringJumpTableEE4moveEPKS2_S5_PS2_
__ZN3WTF9HashTableINS_6RefPtrINS_10StringImplEEENS_12KeyValuePairIS3_iEENS_24KeyValuePairKeyExtractorIS5_EENS_10StringHashENS_22KeyValuePairHashTraitsINS_10HashTraitsIS3_EENSA_IiEEEESB_E3addINS_17HashMapTranslatorISD_S8_EEPS2_iEENS_18HashTableAddResultINS_17HashTableIteratorIS3_S5_S7_S8_SD_SB_EEEERKT0_RKT1_
__ZN3WTF9HashTableINS_6RefPtrINS_10StringImplEEENS_12KeyValuePairIS3_iEENS_24KeyValuePairKeyExtractorIS5_EENS_10StringHashENS_22KeyValuePairHashTraitsINS_10HashTraitsIS3_EENSA_IiEEEESB_E3addINS_22IdentityHashTranslatorIS8_EES3_S5_EENS_18HashTableAddResultINS_17HashTableIteratorIS3_S5_S7_S8_SD_SB_EEEERKT0_RKT1_
__ZN3WTF9HashTableINS_6RefPtrINS_10StringImplEEENS_12KeyValuePairIS3_iEENS_24KeyValuePairKeyExtractorIS5_EENS_10StringHashENS_22KeyValuePairHashTraitsINS_10HashTraitsIS3_EENSA_IiEEEESB_E6rehashEi
__ZN3WTF9HashTableINS_6RefPtrINS_10StringImplEEENS_12KeyValuePairIS3_iEENS_24KeyValuePairKeyExtractorIS5_EENS_10StringHashENS_22KeyValuePairHashTraitsINS_10HashTraitsIS3_EENSA_IiEEEESB_E8reinsertERS5_
__ZN3WTF6VectorIN3JSC15StringJumpTableELm0ENS_15CrashOnOverflowEE15reserveCapacityEm
__ZN3WTF11VectorMoverILb0EN3JSC15StringJumpTableEE4moveEPKS2_S5_PS2_
__ZN3JSCL26stringProtoFuncToUpperCaseEPNS_9ExecStateE
__ZN3JSC3DFG14ByteCodeParser7toInt32EPNS0_4NodeE
__ZN3JSC3DFG12GPRTemporaryC1EPNS0_14SpeculativeJITERNS0_23SpeculateIntegerOperandES5_
__ZN3JSC3DFG12GPRTemporaryC2EPNS0_14SpeculativeJITERNS0_23SpeculateIntegerOperandES5_
__ZN3WTF6VectorIN3JSC3DFG20PropertyAccessRecordELm4ENS_15CrashOnOverflowEE15reserveCapacityEm
__ZN3JSC3DFGL28generateProtoChainAccessStubEPNS_9ExecStateERNS_17StructureStubInfoEPNS_14StructureChainEmiPNS_9StructureENS_17CodeLocationLabelES9_RN3WTF6RefPtrINS_14JITStubRoutineEEE
__ZN3JSC3DFGL27addStructureTransitionCheckEPNS_6JSCellEPNS_9StructureEPNS_9CodeBlockERNS_17StructureStubInfoERNS_14MacroAssemblerERNS_22AbstractMacroAssemblerINS_12X86AssemblerEE8JumpListENS_12X86Registers10RegisterIDE
_JSObjectHasProperty
__ZN3JSC8JSObject21deletePropertyByIndexEPNS_6JSCellEPNS_9ExecStateEj
__Z21TCMalloc_SystemCommitPvm
__ZN3JSC3JIT24emit_op_new_array_bufferEPNS_11InstructionE
_cti_op_new_array_buffer
__ZN3JSC4Yarr11InterpreterItE9interpretEv
__ZN3JSC4Yarr11InterpreterItE16matchDisjunctionEPNS0_15ByteDisjunctionEPNS2_18DisjunctionContextEb
__ZN3JSC4Yarr11InterpreterItE19matchCharacterClassERNS0_8ByteTermEPNS2_18DisjunctionContextE
__ZN3JSC4Yarr11InterpreterItE18testCharacterClassEPNS0_14CharacterClassEi
__ZN3JSC4Yarr11InterpreterItE23backtrackCharacterClassERNS0_8ByteTermEPNS2_18DisjunctionContextE
__ZN3JSC4Yarr11InterpreterItE16matchParenthesesERNS0_8ByteTermEPNS2_18DisjunctionContextE
__ZN3JSC4Yarr11InterpreterItE34allocParenthesesDisjunctionContextEPNS0_15ByteDisjunctionEPjRNS0_8ByteTermE
__ZN3JSC3JIT17emit_op_jngreaterEPNS_11InstructionE
__ZN3JSC3JIT18emit_op_jgreatereqEPNS_11InstructionE
__ZN3JSC3JIT21emitSlow_op_jngreaterEPNS_11InstructionERPNS_13SlowCaseEntryE
__ZN3JSC3JIT22emitSlow_op_jgreatereqEPNS_11InstructionERPNS_13SlowCaseEntryE
_JSObjectDeletePrivateProperty
__ZN3WTF7HashMapINS_6RefPtrINS_10StringImplEEEN3JSC12WriteBarrierINS4_7UnknownEEENS4_17IdentifierRepHashENS_10HashTraitsIS3_EENS9_IS7_EEE6removeEPS2_
__ZN3JSC6ParserINS_5LexerItEEE21parseDoWhileStatementINS_10ASTBuilderEEENT_9StatementERS6_
__ZN3JSC20JSCallbackObjectData20JSPrivatePropertyMap13visitChildrenERNS_11SlotVisitorE
__ZN3JSC11DoWhileNode12emitBytecodeERNS_17BytecodeGeneratorEPNS_10RegisterIDE
__ZN3JSC7toInt32Ed
__ZN3JSC4Yarr11YarrPattern23nonspacesCharacterClassEv
__ZN3JSC4Yarr15nonspacesCreateEv
__ZN3JSC12RegExpObject3putEPNS_6JSCellEPNS_9ExecStateENS_12PropertyNameENS_7JSValueERNS_15PutPropertySlotE
__ZN3JSC17RegExpConstructor3putEPNS_6JSCellEPNS_9ExecStateENS_12PropertyNameENS_7JSValueERNS_15PutPropertySlotE
__ZN3JSC17ObjectConstructor11getCallDataEPNS_6JSCellERNS_8CallDataE
__ZN3JSCL21callObjectConstructorEPNS_9ExecStateE
__ZN3JSC27constructArrayWithSizeQuirkEPNS_9ExecStateEPNS_22ArrayAllocationProfileEPNS_14JSGlobalObjectENS_7JSValueE
__ZN3JSCL21objectConstructorKeysEPNS_9ExecStateE
__ZN3JSC12StringObject3putEPNS_6JSCellEPNS_9ExecStateENS_12PropertyNameENS_7JSValueERNS_15PutPropertySlotE
__ZN3JSC3JIT11emit_op_neqEPNS_11InstructionE
__ZN3JSC3JIT15emitSlow_op_neqEPNS_11InstructionERPNS_13SlowCaseEntryE
__ZNK3JSC7JSValue16toObjectSlowCaseEPNS_9ExecStateEPNS_14JSGlobalObjectE
__ZN3JSC36constructBooleanFromImmediateBooleanEPNS_9ExecStateEPNS_14JSGlobalObjectENS_7JSValueE
__ZN3JSC13BooleanObjectC1ERNS_2VMEPNS_9StructureE
__ZN3JSC10JSFunction4nameEPNS_9ExecStateE
__ZNK3JSC18FunctionExecutable11paramStringEv
__ZNK3JSC26UnlinkedFunctionExecutable11paramStringEv
__ZN3JSC22jsMakeNontrivialStringIPKcN3WTF6StringES2_S4_S2_S4_EENS_7JSValueEPNS_9ExecStateET_T0_T1_T2_T3_T4_
__ZN3WTF13tryMakeStringIPKcNS_6StringES2_S3_S2_S3_EENS_10PassRefPtrINS_10StringImplEEET_T0_T1_T2_T3_T4_
__ZN3JSC4Yarr12ByteCompiler26alternativeBodyDisjunctionEb
__ZN3JSC3JIT24emit_op_create_argumentsEPNS_11InstructionE
__ZN3JSC3JIT16emit_op_new_funcEPNS_11InstructionE
_cti_op_create_arguments
__ZN3JSC3JIT27emit_op_new_array_with_sizeEPNS_11InstructionE
_cti_op_new_array_with_size
__ZN3JSC3JIT22privateCompilePutByValEPNS_9ByValInfoENS_16ReturnAddressPtrENS_12JITArrayModeE
__ZN3JSC3JIT24emitArrayStoragePutByValEPNS_11InstructionERNS_22AbstractMacroAssemblerINS_12X86AssemblerEE13PatchableJumpE
__ZN3JSC3JIT22privateCompileGetByValEPNS_9ByValInfoENS_16ReturnAddressPtrENS_12JITArrayModeE
_cti_op_new_func
__ZN3JSCL20stringProtoFuncSliceEPNS_9ExecStateE
__ZN3JSC9Structure31removePropertyWithoutTransitionERNS_2VMENS_12PropertyNameE
__ZN3JSC10JSFunction14deletePropertyEPNS_6JSCellEPNS_9ExecStateENS_12PropertyNameE
__ZN3JSC18FunctionParametersD1Ev
__ZN3JSC3JIT20emit_op_is_undefinedEPNS_11InstructionE
__ZN3JSC20MacroAssemblerX86_649compare64ENS_23MacroAssemblerX86Common19RelationalConditionENS_12X86Registers10RegisterIDENS_22AbstractMacroAssemblerINS_12X86AssemblerEE12TrustedImm32ES4_
__ZN3JSC3JIT26emit_op_tear_off_argumentsEPNS_11InstructionE
_cti_op_tear_off_arguments
__ZN3JSCL19stringProtoFuncTrimEPNS_9ExecStateE
__ZN3JSCL10trimStringEPNS_9ExecStateENS_7JSValueEi
__ZN3JSC15isStrWhiteSpaceEt
__ZN3JSC3DFG8CSEPhaseILNS0_7CSEModeE1EE24setLocalStoreEliminationENS_15VirtualRegisterEPNS0_4NodeE
__ZN3JSC3DFG12slowPathCallINS_22AbstractMacroAssemblerINS_12X86AssemblerEE4JumpEPFPNS_6JSCellEPNS_9ExecStateEENS_12X86Registers10RegisterIDEEEN3WTF10PassOwnPtrINS0_17SlowPathGeneratorEEET_PNS0_14SpeculativeJITET0_T1_NS0_18SpillRegistersModeE
__ZN3JSC3DFG14SpeculativeJIT13callOperationEPFPNS_6JSCellEPNS_9ExecStateEENS_12X86Registers10RegisterIDE
_operationCreateActivation
__ZN3JSC17BytecodeGenerator21addConstantEmptyValueEv
__ZN3JSC7JSProxy9classNameEPKNS_8JSObjectE
__ZN3JSCL21arrayProtoFuncIndexOfEPNS_9ExecStateE
__ZN3JSCL21stringProtoFuncCharAtEPNS_9ExecStateE
__ZN3JSC6ParserINS_5LexerIhEEE18parseWithStatementINS_13SyntaxCheckerEEENT_9StatementERS6_
__ZN3JSC20jsTypeStringForValueEPNS_9ExecStateENS_7JSValueE
__ZN3JSC20jsTypeStringForValueERNS_2VMEPNS_14JSGlobalObjectENS_7JSValueE
__ZN3WTF6VectorIPvLm4ENS_15CrashOnOverflowEE15reserveCapacityEm
_cti_op_del_by_id
__ZN3JSC3JIT21emit_op_switch_stringEPNS_11InstructionE
__ZN3WTF6VectorIN3JSC12SwitchRecordELm0ENS_15CrashOnOverflowEE15reserveCapacityEm
__ZN3WTF9HashTableINS_6RefPtrINS_10StringImplEEENS_12KeyValuePairIS3_N3JSC14OffsetLocationEEENS_24KeyValuePairKeyExtractorIS7_EENS_10StringHashENS_22KeyValuePairHashTraitsINS_10HashTraitsIS3_EENSC_IS6_EEEESD_E3addINS_17HashMapTranslatorISF_SA_EES3_S6_EENS_18HashTableAddResultINS_17HashTableIteratorIS3_S7_S9_SA_SF_SD_EEEERKT0_RKT1_
__ZN3WTF9HashTableINS_6RefPtrINS_10StringImplEEENS_12KeyValuePairIS3_N3JSC14OffsetLocationEEENS_24KeyValuePairKeyExtractorIS7_EENS_10StringHashENS_22KeyValuePairHashTraitsINS_10HashTraitsIS3_EENSC_IS6_EEEESD_E3addINS_22IdentityHashTranslatorISA_EES3_S7_EENS_18HashTableAddResultINS_17HashTableIteratorIS3_S7_S9_SA_SF_SD_EEEERKT0_RKT1_
__ZN3WTF9HashTableINS_6RefPtrINS_10StringImplEEENS_12KeyValuePairIS3_N3JSC14OffsetLocationEEENS_24KeyValuePairKeyExtractorIS7_EENS_10StringHashENS_22KeyValuePairHashTraitsINS_10HashTraitsIS3_EENSC_IS6_EEEESD_E6lookupINS_17HashMapTranslatorISF_SA_EEPS2_EEPS7_RKT0_
__ZN3WTF9HashTableINS_6RefPtrINS_10StringImplEEENS_12KeyValuePairIS3_N3JSC14OffsetLocationEEENS_24KeyValuePairKeyExtractorIS7_EENS_10StringHashENS_22KeyValuePairHashTraitsINS_10HashTraitsIS3_EENSC_IS6_EEEESD_E6rehashEi
__ZN3WTF9HashTableINS_6RefPtrINS_10StringImplEEENS_12KeyValuePairIS3_N3JSC14OffsetLocationEEENS_24KeyValuePairKeyExtractorIS7_EENS_10StringHashENS_22KeyValuePairHashTraitsINS_10HashTraitsIS3_EENSC_IS6_EEEESD_E8reinsertERS7_
__ZN3WTF9HashTableINS_6RefPtrINS_10StringImplEEENS_12KeyValuePairIS3_N3JSC14OffsetLocationEEENS_24KeyValuePairKeyExtractorIS7_EENS_10StringHashENS_22KeyValuePairHashTraitsINS_10HashTraitsIS3_EENSC_IS6_EEEESD_EaSERKSG_
__ZN3JSC3JIT26emit_op_check_has_instanceEPNS_11InstructionE
__ZN3JSC3JIT18emit_op_instanceofEPNS_11InstructionE
__ZN3JSC3JIT20emit_op_resolve_baseEPNS_11InstructionE
__ZN3JSC3JIT19emit_op_put_to_baseEPNS_11InstructionE
__ZN3JSC3JIT30emitSlow_op_check_has_instanceEPNS_11InstructionERPNS_13SlowCaseEntryE
__ZN3JSC3JIT22emitSlow_op_instanceofEPNS_11InstructionERPNS_13SlowCaseEntryE
__ZN3JSC3JIT24emitSlow_op_resolve_baseEPNS_11InstructionERPNS_13SlowCaseEntryE
__ZN3WTF6String23make16BitFrom8BitSourceEPKhm
_cti_op_switch_string
__ZN3JSC8VoidNode12emitBytecodeERNS_17BytecodeGeneratorEPNS_10RegisterIDE
__ZN3JSC3JIT17emit_op_is_stringEPNS_11InstructionE
__ZN3JSC6ParserINS_5LexerItEEE19parseThrowStatementINS_10ASTBuilderEEENT_9StatementERS6_
__ZN3JSCL23regExpProtoFuncToStringEPNS_9ExecStateE
__ZN3JSCL18regExpObjectGlobalEPNS_9ExecStateENS_7JSValueENS_12PropertyNameE
__ZN3JSCL22regExpObjectIgnoreCaseEPNS_9ExecStateENS_7JSValueENS_12PropertyNameE
__ZN3JSCL21regExpObjectMultilineEPNS_9ExecStateENS_7JSValueENS_12PropertyNameE
__ZN3JSC22jsMakeNontrivialStringIPKcN3WTF6StringEPcEENS_7JSValueEPNS_9ExecStateET_T0_T1_
__ZN3WTF13tryMakeStringIPKcNS_6StringEPcEENS_10PassRefPtrINS_10StringImplEEET_T0_T1_
__ZN3JSC20globalFuncParseFloatEPNS_9ExecStateE
_cti_op_is_function
_cti_op_put_by_id_transition_realloc
__ZN3JSC3JIT30privateCompileGetByIdChainListEPNS_17StructureStubInfoEPNS_30PolymorphicAccessStructureListEiPNS_9StructureEPNS_14StructureChainEmRKNS_10IdentifierERKNS_12PropertySlotEiPNS_9ExecStateE
__ZN3JSC7WeakSet15removeAllocatorEPNS_9WeakBlockE
_cti_op_get_by_id_proto_list_full
__ZN3JSC31stringLengthTrampolineGeneratorEPNS_2VME
__ZN3JSC20MacroAssemblerX86_6421makeTailRecursiveCallENS_22AbstractMacroAssemblerINS_12X86AssemblerEE4JumpE
__ZN3JSC27ctiPatchCallByReturnAddressEPNS_9CodeBlockENS_16ReturnAddressPtrENS_21MacroAssemblerCodePtrE
__ZN3WTF6String6removeEji
__ZN3WTF6VectorIN3JSC4Yarr13YarrGeneratorILNS2_18YarrJITCompileModeE1EE17BacktrackingState19ReturnAddressRecordELm4ENS_15CrashOnOverflowEE15reserveCapacityEm
__ZNK3JSC7JSValue19synthesizePrototypeEPNS_9ExecStateE
__ZN3JSC16BooleanPrototype18getOwnPropertySlotEPNS_6JSCellEPNS_9ExecStateENS_12PropertyNameERNS_12PropertySlotE
__ZN3JSC21getStaticFunctionSlotINS_13BooleanObjectEEEbPNS_9ExecStateEPKNS_9HashTableEPNS_8JSObjectENS_12PropertyNameERNS_12PropertySlotE
__ZN3JSC7JSValue14putToPrimitiveEPNS_9ExecStateENS_12PropertyNameES0_RNS_15PutPropertySlotE
__ZN3JSC4Yarr22YarrPatternConstructor22containsCapturingTermsEPNS0_18PatternAlternativeEmm
__ZN3WTF12AtomicString16fromUTF8InternalEPKcS2_
__ZN3WTF7Unicode51calculateStringHashAndLengthFromUTF8MaskingTop8BitsEPKcS2_RjS3_
__ZN3WTF31HashAndUTF8CharactersTranslator5equalERKPNS_10StringImplERKNS_21HashAndUTF8CharactersE
__ZN3WTF31HashAndUTF8CharactersTranslator9translateERPNS_10StringImplERKNS_21HashAndUTF8CharactersEj
__ZN3WTF16codePointCompareERKNS_6StringES2_
__ZNK3WTF13StringBuilder9canShrinkEv
__ZN3JSC37leastUpperBoundOfIndexingTypeAndValueEhNS_7JSValueE
__ZN3WTF15SegmentedVectorIN3JSC3DFG18NewArrayBufferDataELm4ELm32EE6appendIS3_EEvRKT_
__ZN3WTF6VectorIPNS0_IN3JSC3DFG18NewArrayBufferDataELm4ENS_15CrashOnOverflowEEELm0ES4_E14expandCapacityEm
__ZN3JSC3DFG14SpeculativeJIT17compileRegExpExecEPNS0_4NodeE
__ZN3JSC3DFG14SpeculativeJIT19emitAllocateJSArrayENS_12X86Registers10RegisterIDEPNS_9StructureES3_j
__ZN3JSC3DFG14SpeculativeJIT24emitAllocateBasicStorageINS_22AbstractMacroAssemblerINS_12X86AssemblerEE12TrustedImm32EEENS5_4JumpET_NS_12X86Registers10RegisterIDE
__ZN3JSC20MacroAssemblerX86_645add64ENS_22AbstractMacroAssemblerINS_12X86AssemblerEE15AbsoluteAddressENS_12X86Registers10RegisterIDE
__ZN3JSC3DFG35CallArrayAllocatorSlowPathGeneratorC2ENS_22AbstractMacroAssemblerINS_12X86AssemblerEE8JumpListEPNS0_14SpeculativeJITEPFPcPNS_9ExecStateEPNS_9StructureEiENS_12X86Registers10RegisterIDESG_SC_m
__ZN3JSC3DFG35CallArrayAllocatorSlowPathGenerator16generateInternalEPNS0_14SpeculativeJITE
__ZN3JSC3DFG14SpeculativeJIT13callOperationEPFPcPNS_9ExecStateEPNS_9StructureEiENS_12X86Registers10RegisterIDES6_m
__ZN3JSC3DFG35CallArrayAllocatorSlowPathGeneratorD0Ev
__ZN3JSC12X86Assembler6push_rENS_12X86Registers10RegisterIDE
__ZN3JSC20MacroAssemblerX86_644or32ENS_12X86Registers10RegisterIDENS_22AbstractMacroAssemblerINS_12X86AssemblerEE15AbsoluteAddressE
__ZN3JSC12X86Assembler5pop_rENS_12X86Registers10RegisterIDE
_operationRegExpExec
__ZN3JSC7JSScope15resolveWithBaseEPNS_9ExecStateERKNS_10IdentifierEPNS_8RegisterEPN3WTF6VectorINS_16ResolveOperationELm0ENS8_15CrashOnOverflowEEEPNS_18PutToBaseOperationE
__ZN3JSC7JSScope30resolveContainingScopeInternalILNS0_10LookupModeE0ELNS0_12ReturnValuesE3EEEPNS_8JSObjectEPNS_9ExecStateERKNS_10IdentifierERNS_12PropertySlotEPN3WTF6VectorINS_16ResolveOperationELm0ENSD_15CrashOnOverflowEEEPNS_18PutToBaseOperationEb
__ZNK3JSC7SubNode10isSubtractEv
__ZN3JSC7JSArray10sortVectorILh27EEEvPNS_9ExecStateENS_7JSValueENS_8CallTypeERKNS_8CallDataE
__ZN3JSC3DFG44CallResultAndThreeArgumentsSlowPathGeneratorINS_22AbstractMacroAssemblerINS_12X86AssemblerEE8JumpListEPFPNS_6JSCellEPNS_9ExecStateEPNS_8JSStringESB_SB_ENS_12X86Registers10RegisterIDESF_SF_SF_E16generateInternalEPNS0_14SpeculativeJITE
__ZN3JSC3DFG44CallResultAndThreeArgumentsSlowPathGeneratorINS_22AbstractMacroAssemblerINS_12X86AssemblerEE8JumpListEPFPNS_6JSCellEPNS_9ExecStateEPNS_8JSStringESB_SB_ENS_12X86Registers10RegisterIDESF_SF_SF_EC2ES5_PNS0_14SpeculativeJITESD_NS0_18SpillRegistersModeESF_SF_SF_SF_
__ZN3JSC3DFG44CallResultAndThreeArgumentsSlowPathGeneratorINS_22AbstractMacroAssemblerINS_12X86AssemblerEE8JumpListEPFPNS_6JSCellEPNS_9ExecStateEPNS_8JSStringESB_SB_ENS_12X86Registers10RegisterIDESF_SF_SF_ED0Ev
__ZN3JSC3DFG44CallResultAndThreeArgumentsSlowPathGeneratorINS_22AbstractMacroAssemblerINS_12X86AssemblerEE8JumpListEPFPNS_6JSCellEPNS_9ExecStateEPNS_8JSStringESB_SB_ENS_12X86Registers10RegisterIDESF_SF_SF_ED1Ev
__ZN3JSC3DFG14SpeculativeJIT13callOperationEPFPNS_6JSCellEPNS_9ExecStateEPNS_8JSStringES7_S7_ENS_12X86Registers10RegisterIDESB_SB_SB_
__ZN3JSC3DFG12CCallHelpers16setupTwoStubArgsILNS_12X86Registers10RegisterIDE6ELS4_1EEEvS4_S4_
__ZN3JSC4Yarr6ParserINS0_13SyntaxCheckerEtE11parseTokensEv
__ZN3JSC4Yarr6ParserINS0_13SyntaxCheckerEtE11parseEscapeILb0ES2_EEbRT0_
__ZN3JSC4Yarr6ParserINS0_13SyntaxCheckerEtE19parseCharacterClassEv
__ZN3JSC6ParserINS_5LexerItEEE18parseWithStatementINS_13SyntaxCheckerEEENT_9StatementERS6_
__ZN3JSC4Yarr6ParserINS0_13SyntaxCheckerEtE11parseEscapeILb1ENS3_28CharacterClassParserDelegateEEEbRT0_
__ZN3WTF6VectorIN3JSC19ExpressionRangeInfo11FatPositionELm0ENS_15CrashOnOverflowEE15reserveCapacityEm
__ZN3JSC16SymbolTableEntry15notifyWriteSlowEv
__ZN3JSC19FunctionConstructor16getConstructDataEPNS_6JSCellERNS_13ConstructDataE
__ZN3JSCL32constructWithFunctionConstructorEPNS_9ExecStateE
__ZN3JSC17constructFunctionEPNS_9ExecStateEPNS_14JSGlobalObjectERKNS_7ArgListE
__ZN3JSC41constructFunctionSkippingEvalEnabledCheckEPNS_9ExecStateEPNS_14JSGlobalObjectERKNS_7ArgListERKNS_10IdentifierERKN3WTF6StringERKNSA_12TextPositionE
__ZN3JSC18FunctionExecutable14fromGlobalCodeERKNS_10IdentifierEPNS_9ExecStateEPNS_8DebuggerERKNS_10SourceCodeEPPNS_8JSObjectE
__ZN3JSC26UnlinkedFunctionExecutable14fromGlobalCodeERKNS_10IdentifierEPNS_9ExecStateEPNS_8DebuggerERKNS_10SourceCodeEPPNS_8JSObjectE
__ZN3JSC9CodeCache35getFunctionExecutableFromGlobalCodeERNS_2VMERKNS_10IdentifierERKNS_10SourceCodeERNS_11ParserErrorE
__ZN3JSCL26stringProtoFuncLastIndexOfEPNS_9ExecStateE
__ZNK3JSC7JSValue20toIntegerPreserveNaNEPNS_9ExecStateE
__ZN3WTF10StringImpl11reverseFindEPS0_j
__ZN3JSC15NumberPrototype18getOwnPropertySlotEPNS_6JSCellEPNS_9ExecStateENS_12PropertyNameERNS_12PropertySlotE
__ZN3JSC21getStaticFunctionSlotINS_12NumberObjectEEEbPNS_9ExecStateEPKNS_9HashTableEPNS_8JSObjectENS_12PropertyNameERNS_12PropertySlotE
__ZN3WTF6VectorINS_6RefPtrIN3JSC10RegisterIDEEELm8ENS_20UnsafeVectorOverflowEE15reserveCapacityEm
__ZN3JSC16ArrayConstructor16getConstructDataEPNS_6JSCellERNS_13ConstructDataE
__ZN3JSCL29constructWithArrayConstructorEPNS_9ExecStateE
__ZN3JSC28globalFuncEncodeURIComponentEPNS_9ExecStateE
__ZN3JSCL6encodeEPNS_9ExecStateEPKc
__ZN3JSC15JSStringBuilder6appendEt
__ZN3JSC15JSStringBuilder5buildEPNS_9ExecStateE
__ZN3WTF6VectorIhLm64ENS_20UnsafeVectorOverflowEE14shrinkCapacityEm
__ZN3JSC28globalFuncDecodeURIComponentEPNS_9ExecStateE
__ZN3JSCL6decodeEPNS_9ExecStateEPKcb
__ZN3JSCL20dateProtoFuncSetTimeEPNS_9ExecStateE
__ZN3JSCL24dateProtoFuncToGMTStringEPNS_9ExecStateE
__ZN3JSCL19formateDateInstanceEPNS_9ExecStateENS_14DateTimeFormatEb
__ZNK3JSC12DateInstance29calculateGregorianDateTimeUTCEPNS_9ExecStateE
__ZN3JSC17DateInstanceCache3addEd
__ZN3WTF8msToYearEd
__ZN3WTF11msToMinutesEd
__ZN3WTF9msToHoursEd
__ZN3WTF8msToDaysEd
__ZN3WTF9dayInYearEdi
__ZN3WTF10isLeapYearEi
__ZN3WTF23dayInMonthFromDayInYearEib
__ZN3WTF18monthFromDayInYearEib
__ZN3JSC14formatDateTimeERKN3WTF17GregorianDateTimeENS_14DateTimeFormatEb
__ZN3JSC16SymbolTableEntry18addressOfIsWatchedEv
__ZN3JSC3JIT16emit_op_jgreaterEPNS_11InstructionE
__ZN3JSC3JIT20emitSlow_op_jgreaterEPNS_11InstructionERPNS_13SlowCaseEntryE
__ZN3WTF6VectorIN3JSC3DFG14ByteCodeParser14ConstantRecordELm16ENS_15CrashOnOverflowEE15reserveCapacityEm
__ZN3WTF6VectorIN3JSC3DFG9InsertionELm8ENS_15CrashOnOverflowEE15reserveCapacityEm
__ZN3JSC3DFG22CFGSimplificationPhase13jettisonBlockEjjNS_10CodeOriginE
__ZN3JSC3DFG22CFGSimplificationPhase16keepOperandAliveEPNS0_10BasicBlockES3_NS_10CodeOriginEi
__ZN3JSC3DFG10BasicBlock10appendNodeINS0_8NodeTypeENS_10CodeOriginENS0_6OpInfoEEEPNS0_4NodeERNS0_5GraphEjRKT_RKT0_RKT1_
__ZN3JSC3DFG19CPSRethreadingPhase34canonicalizeFlushOrPhantomLocalForILNS0_8NodeTypeE16ELNS_11OperandKindE0EEEvPNS0_4NodeEPNS0_18VariableAccessDataEm
__ZN3WTF6VectorIPN3JSC3DFG4NodeELm128ENS_15CrashOnOverflowEE15reserveCapacityEm
__ZN3WTF6VectorIN3JSC3DFG11JITCompiler12JSCallRecordELm4ENS_15CrashOnOverflowEE15reserveCapacityEm
__ZN3JSC3DFG14SpeculativeJIT13callOperationEPFmPNS_9ExecStateExENS_12X86Registers10RegisterIDES7_
__ZN3WTF6VectorINS_6OwnPtrIN3JSC3DFG17SlowPathGeneratorEEELm8ENS_15CrashOnOverflowEE15reserveCapacityEm
__ZN3JSC3DFG14SpeculativeJIT22speculateObjectOrOtherENS0_4EdgeE
_dfgConvertJSValueToBoolean
__ZN3WTF10makeStringINS_6StringEPKcS1_EES1_T_T0_T1_
__ZN3WTF13tryMakeStringINS_6StringEPKcS1_EENS_10PassRefPtrINS_10StringImplEEET_T0_T1_
__ZN3JSC3DFG15dfgResetGetByIDERNS_13RepatchBufferERNS_17StructureStubInfoE
__ZN3JSC9HandleSet4growEv
_cti_op_typeof
__ZN3JSC12RegExpObject12setLastIndexEPNS_9ExecStateEm
__ZN3JSC4Yarr13YarrGeneratorILNS0_18YarrJITCompileModeE0EE31opCompileParentheticalAssertionEPNS0_11PatternTermE
__ZN3JSC4Yarr12ByteCompiler31atomParentheticalAssertionBeginEjbjj
__ZN3JSC4Yarr12ByteCompiler29atomParentheticalAssertionEndEjjN3WTF7CheckedIjNS2_15CrashOnOverflowEEENS0_14QuantifierTypeE
__ZN3JSC5shiftILNS_7JSArray14ShiftCountModeE1EEEvPNS_9ExecStateEPNS_8JSObjectEjjjj
__ZN3JSC18RegExpMatchesArray10putByIndexEPNS_6JSCellEPNS_9ExecStateEjNS_7JSValueEb
__ZN3JSC18RegExpMatchesArray21deletePropertyByIndexEPNS_6JSCellEPNS_9ExecStateEj
__ZN3JSC18RegExpMatchesArray3putEPNS_6JSCellEPNS_9ExecStateENS_12PropertyNameENS_7JSValueERNS_15PutPropertySlotE
__ZN3JSC4Yarr13YarrGeneratorILNS0_18YarrJITCompileModeE1EE31opCompileParentheticalAssertionEPNS0_11PatternTermE
_cti_op_greater
_cti_op_instanceof
_cti_op_load_varargs
__ZNK3JSC9ArrayNode13isSimpleArrayEv
__ZNK3JSC9ArrayNode14toArgumentListEPNS_2VMEii
_cti_op_get_by_id_proto_fail
__ZN3JSC9parseDateEPNS_9ExecStateERKN3WTF6StringE
__ZN3WTF40parseES5DateFromNullTerminatedCharactersEPKc
__ZN3WTF37parseDateFromNullTerminatedCharactersEPKcRbRi
__ZNK3JSC8JSObject8toNumberEPNS_9ExecStateE
__ZN3WTF6VectorIN3JSC10ASTBuilder14AssignmentInfoELm10ENS_20UnsafeVectorOverflowEE15reserveCapacityEm
_floorThunk
__ZN3JSCL20dateProtoFuncGetYearEPNS_9ExecStateE
__ZNK3JSC12DateInstance26calculateGregorianDateTimeEPNS_9ExecStateE
__ZN3JSCL15localTimeOffsetEPNS_9ExecStateEd
__ZN3WTF24calculateLocalTimeOffsetEd
__ZN3JSCL20dateProtoFuncGetDateEPNS_9ExecStateE
__ZN3JSCL21dateProtoFuncGetMonthEPNS_9ExecStateE
__ZN3JSCL21dateProtoFuncGetHoursEPNS_9ExecStateE
__ZN3JSCL23dateProtoFuncGetMinutesEPNS_9ExecStateE
__ZN3JSCL23dateProtoFuncGetSecondsEPNS_9ExecStateE
__ZN3JSCL19dateProtoFuncGetDayEPNS_9ExecStateE
__ZN3JSCL30dateProtoFuncGetTimezoneOffsetEPNS_9ExecStateE
__ZN3JSC28createUndefinedVariableErrorEPNS_9ExecStateERKNS_10IdentifierE
__ZN3WTF13tryMakeStringIPKcNS_6StringEEENS_10PassRefPtrINS_10StringImplEEET_T0_
__ZN3JSC20createReferenceErrorEPNS_9ExecStateERKN3WTF6StringE
__ZN3JSC13ErrorInstance6createERNS_2VMEPNS_9StructureERKN3WTF6StringE
__ZN3JSC10throwErrorEPNS_9ExecStateEPNS_8JSObjectE
__ZN3JSC5LLInt13returnToThrowEPNS_9ExecStateEPNS_11InstructionE
__ZN3JSC9CodeBlock20adjustPCIfAtCallSiteEPNS_11InstructionE
__ZN3JSC12genericThrowEPNS_2VMEPNS_9ExecStateENS_7JSValueEj
__ZN3JSC3JIT11emit_op_modEPNS_11InstructionE
__ZN3JSC3JIT11emit_op_divEPNS_11InstructionE
__ZN3JSC3JIT21emitLoadInt32ToDoubleEiNS_12X86Registers13XMMRegisterIDE
__ZN3JSC14MacroAssembler20convertInt32ToDoubleENS_22AbstractMacroAssemblerINS_12X86AssemblerEE5Imm32ENS_12X86Registers13XMMRegisterIDE
__ZN3JSC3JIT15emitSlow_op_modEPNS_11InstructionERPNS_13SlowCaseEntryE
__ZN3JSCL20dateProtoFuncSetYearEPNS_9ExecStateE
__ZN3WTF18dateToDaysFrom1970Eiii
__ZN3JSC10PrefixNode11emitBracketERNS_17BytecodeGeneratorEPNS_10RegisterIDE
__ZN3JSC16globalFuncEscapeEPNS_9ExecStateE
__ZN3JSC15JSStringBuilder6appendEPKc
__ZN3WTF6VectorIhLm64ENS_20UnsafeVectorOverflowEE9tryAppendIhEEbPKT_m
__ZN3JSC18globalFuncUnescapeEPNS_9ExecStateE
__ZN3JSC14MacroAssembler22loadXorBlindedConstantENS0_12BlindedImm32ENS_12X86Registers10RegisterIDE
__ZN3WTF7Unicode18UTF8SequenceLengthEc
__ZN3WTF7Unicode18decodeUTF8SequenceEPKc
__ZN3JSCL23numberProtoFuncToStringEPNS_9ExecStateE
__ZN3JSC21ReadModifyBracketNode12emitBytecodeERNS_17BytecodeGeneratorEPNS_10RegisterIDE
__ZN3JSC7JSArray29shiftCountWithAnyIndexingTypeEPNS_9ExecStateEjj
__ZN3JSC6Walker4walkENS_7JSValueE
__ZN3JSC13UnaryPlusNode14stripUnaryPlusEv
__ZN3JSC3JIT11emit_op_mulEPNS_11InstructionE
__ZN3JSC14MacroAssembler11branchMul32ENS_23MacroAssemblerX86Common15ResultConditionENS_22AbstractMacroAssemblerINS_12X86AssemblerEE5Imm32ENS_12X86Registers10RegisterIDES8_
__ZN3JSC3JIT15emitSlow_op_mulEPNS_11InstructionERPNS_13SlowCaseEntryE
__ZN3JSC9ExecState19arrayPrototypeTableEPS0_
__ZN3JSC3JIT23emitSlow_op_put_to_baseEPNS_11InstructionERPNS_13SlowCaseEntryE
_cti_op_put_to_base
__ZN3JSC3DFG14SpeculativeJIT21compileIntegerCompareEPNS0_4NodeENS_23MacroAssemblerX86Common19RelationalConditionE
__ZNK3JSC28MethodOfGettingAValueProfile17getSpecFailBucketEj
__ZN3WTF6VectorIhLm64ENS_20UnsafeVectorOverflowEE17tryExpandCapacityEm
__ZN3JSC11PostfixNode11emitBracketERNS_17BytecodeGeneratorEPNS_10RegisterIDE
__ZN3JSC3JIT15emitSlow_op_divEPNS_11InstructionERPNS_13SlowCaseEntryE
__ZN3JSC3DFG14SpeculativeJIT17compileInstanceOfEPNS0_4NodeE
__ZN3JSC3DFG14SpeculativeJIT26compileInstanceOfForObjectEPNS0_4NodeENS_12X86Registers10RegisterIDES5_S5_
__ZN3JSC3DFG15AssemblyHelpers17branchIfNotObjectENS_12X86Registers10RegisterIDE
__ZN3WTF9HashTableIPN3JSC3DFG18VariableAccessDataES4_NS_17IdentityExtractorENS_7PtrHashIS4_EENS_10HashTraitsIS4_EES9_E3addINS_22IdentityHashTranslatorIS7_EES4_S4_EENS_18HashTableAddResultINS_17HashTableIteratorIS4_S4_S5_S7_S9_S9_EEEERKT0_RKT1_
__ZN3WTF9HashTableIPN3JSC3DFG18VariableAccessDataES4_NS_17IdentityExtractorENS_7PtrHashIS4_EENS_10HashTraitsIS4_EES9_E16lookupForWritingINS_22IdentityHashTranslatorIS7_EES4_EENSt3__14pairIPS4_bEERKT0_
__ZN3WTF9HashTableIPN3JSC3DFG18VariableAccessDataENS_12KeyValuePairIS4_NS2_12_GLOBAL__N_121ArgumentsAliasingDataEEENS_24KeyValuePairKeyExtractorIS8_EENS_7PtrHashIS4_EENS_18HashMapValueTraitsINS_18NullableHashTraitsIS4_EENS_10HashTraitsIS7_EEEESF_E4findERKS4_
__ZN3WTF9HashTableIPN3JSC3DFG18VariableAccessDataENS_12KeyValuePairIS4_NS2_12_GLOBAL__N_121ArgumentsAliasingDataEEENS_24KeyValuePairKeyExtractorIS8_EENS_7PtrHashIS4_EENS_18HashMapValueTraitsINS_18NullableHashTraitsIS4_EENS_10HashTraitsIS7_EEEESF_E6expandEv
__ZN3JSC3DFG28ArgumentsSimplificationPhase22observeBadArgumentsUseEPNS0_4NodeE
__ZN3JSC3DFG28ArgumentsSimplificationPhase38removeArgumentsReferencingPhantomChildEPNS0_4NodeEj
__ZN3JSC9CodeBlock19shouldReoptimizeNowEv
__ZN3JSC9CodeBlock19optimizeAfterWarmUpEv
__ZN3JSC3DFG14ByteCodeParser10addToGraphENS0_8NodeTypeENS0_4EdgeES3_S3_
__ZN3JSC3DFG14SpeculativeJIT25compileGetArgumentsLengthEPNS0_4NodeE
__ZN3JSC9CodeBlock25appendSpeculationRecoveryERKNS_3DFG19SpeculationRecoveryE
__ZN3WTF6VectorIN3JSC3DFG19SpeculationRecoveryELm0ENS_15CrashOnOverflowEE15reserveCapacityEm
__ZN3JSC3DFG14SpeculativeJIT26compileGetByValOnArgumentsEPNS0_4NodeE
__ZN3JSC3DFG12GPRTemporaryC1Ev
__ZN3JSC3DFG14SpeculativeJIT28temporaryRegisterForPutByValERNS0_12GPRTemporaryENS0_9ArrayModeE
__ZN3JSC3JIT17emit_op_is_numberEPNS_11InstructionE
_cti_op_not
__ZN3JSC10ASTBuilder14makeBitXOrNodeERKNS_15JSTokenLocationEPNS_14ExpressionNodeES5_b
__ZN3JSC3JIT16emit_op_neq_nullEPNS_11InstructionE
__ZN3JSC4Yarr12ByteCompiler17atomBackReferenceEjjjN3WTF7CheckedIjNS2_15CrashOnOverflowEEENS0_14QuantifierTypeE
_cti_op_mul
__ZN3JSC4Yarr11InterpreterIhE18matchBackReferenceERNS0_8ByteTermEPNS2_18DisjunctionContextE
__ZN3JSC4Yarr11InterpreterIhE23tryConsumeBackReferenceEiij
__ZN3WTF6VectorIN3JSC3DFG20ResolveOperationDataELm0ENS_15CrashOnOverflowEE15reserveCapacityEm
__ZN3JSC3DFG14SpeculativeJIT13callOperationEPFxPNS_9ExecStateEPNS_10IdentifierEPN3WTF6VectorINS_16ResolveOperationELm0ENS6_15CrashOnOverflowEEEENS_12X86Registers10RegisterIDES5_SB_
__ZN3JSC3DFG14SpeculativeJIT13callOperationEPFxPNS_9ExecStateEPNS_10IdentifierEPN3WTF6VectorINS_16ResolveOperationELm0ENS6_15CrashOnOverflowEEEPNS_18PutToBaseOperationEENS_12X86Registers10RegisterIDES5_SB_SD_
_operationResolve
__ZN3JSC36leastUpperBoundOfIndexingTypeAndTypeEhj
_operationNewArrayWithSize
__ZN3JSC17StringConstructor11getCallDataEPNS_6JSCellERNS_8CallDataE
__ZN3JSCL21callStringConstructorEPNS_9ExecStateE
__ZN3JSC3DFG14ByteCodeParser12constantNullEv
__ZN3JSC3DFG14SpeculativeJIT25nonSpeculativeCompareNullEPNS0_4NodeENS0_4EdgeEb
__ZN3JSC3DFG14SpeculativeJIT32nonSpeculativePeepholeBranchNullENS0_4EdgeEPNS0_4NodeEb
__ZN3JSC3DFG14SpeculativeJIT11branchTest8INS_22AbstractMacroAssemblerINS_12X86AssemblerEE7AddressENS5_12TrustedImm32EEEvNS_23MacroAssemblerX86Common15ResultConditionET_T0_j
_handleHostCall
__ZNK3WTF6String7toFloatEPb
__ZN3WTF10StringImpl7toFloatEPb
__ZN3WTF17charactersToFloatEPKhmPb
_JSScriptCreateReferencingImmortalASCIIText
__ZNK14OpaqueJSScript6sourceEv
__ZN3JSC6ParserINS_5LexerIhEEE21parseConstDeclarationINS_10ASTBuilderEEENT_9StatementERS6_
__ZN3JSC10ASTBuilder28createGetterOrSetterPropertyILb0EEEPNS_12PropertyNodeERKNS_15JSTokenLocationENS2_4TypeEPKNS_10IdentifierEPNS_13ParameterNodeEPNS_16FunctionBodyNodeEjjiij
__ZN3JSC10ASTBuilder28createGetterOrSetterPropertyILb1EEEPNS_12PropertyNodeERKNS_15JSTokenLocationENS2_4TypeEPKNS_10IdentifierEPNS_13ParameterNodeEPNS_16FunctionBodyNodeEjjiij
__ZN3JSC6ParserINS_5LexerIhEEE21parseConstDeclarationINS_13SyntaxCheckerEEENT_9StatementERS6_
_JSScriptEvaluate
__ZN3JSC18ConstStatementNode12emitBytecodeERNS_17BytecodeGeneratorEPNS_10RegisterIDE
__ZN3JSC13ConstDeclNode12emitBytecodeERNS_17BytecodeGeneratorEPNS_10RegisterIDE
__ZN3JSC13ConstDeclNode14emitCodeSingleERNS_17BytecodeGeneratorE
__ZN3JSC17BytecodeGenerator16resolveConstDeclERKNS_10IdentifierE
__ZN3JSC17BytecodeGenerator19emitInitGlobalConstERKNS_10IdentifierEPNS_10RegisterIDE
__ZN3WTF9HashTableIPNS_10StringImplENS_12KeyValuePairIS2_NSt3__14pairIPN3JSC12PropertyNodeES8_EEEENS_24KeyValuePairKeyExtractorISA_EENS_10StringHashENS_18HashMapValueTraitsINS_10HashTraitsIS2_EENSF_IS9_EEEESG_E3addINS_17HashMapTranslatorISI_SD_EES2_S9_EENS_18HashTableAddResultINS_17HashTableIteratorIS2_SA_SC_SD_SI_SG_EEEERKT0_RKT1_
__ZN3WTF9HashTableIPNS_10StringImplENS_12KeyValuePairIS2_NSt3__14pairIPN3JSC12PropertyNodeES8_EEEENS_24KeyValuePairKeyExtractorISA_EENS_10StringHashENS_18HashMapValueTraitsINS_10HashTraitsIS2_EENSF_IS9_EEEESG_E8reinsertERSA_
__ZN3JSC17BytecodeGenerator19emitPutGetterSetterEPNS_10RegisterIDERKNS_10IdentifierES2_S2_
__ZN3WTF6VectorINSt3__14pairIiiEELm8ENS_15CrashOnOverflowEE15reserveCapacityEm
__ZN3JSC8JSObject22fillGetterPropertySlotERNS_12PropertySlotEi
__ZNK3JSC12PropertySlot14functionGetterEPNS_9ExecStateE
__ZN3JSC4Yarr13YarrGeneratorILNS0_18YarrJITCompileModeE0EE29generateAssertionWordBoundaryEm
__ZN3JSC4Yarr13YarrGeneratorILNS0_18YarrJITCompileModeE0EE22matchAssertionWordcharEmRNS_22AbstractMacroAssemblerINS_12X86AssemblerEE8JumpListES8_
__ZN3WTF6VectorIN3JSC4Yarr13YarrGeneratorILNS2_18YarrJITCompileModeE0EE6YarrOpELm128ENS_15CrashOnOverflowEE15reserveCapacityEm
_cti_op_greatereq
__ZN3JSCL17arrayProtoFuncMapEPNS_9ExecStateE
_JSObjectCopyPropertyNames
_JSStringRetain
_JSPropertyNameArrayGetCount
_JSPropertyNameArrayGetNameAtIndex
_JSPropertyNameArrayRelease
__ZN3WTF7AVLTreeIN3JSC32AVLTreeAbstractorForArrayCompareELj44ENS_18AVLTreeDefaultBSetILj44EEEE7balanceEi
__ZN3WTF21charactersToIntStrictEPKhmPbi
__ZN3WTF12detachThreadEj
__ZN3WTF7HashMapIjNS_6OwnPtrINS_12PthreadStateEEENS_7IntHashIjEENS_10HashTraitsIjEENS6_IS3_EEE6removeERKj
__ZN3JSC17BytecodeGenerator18pushFinallyContextEPNS_13StatementNodeE
__ZN3JSC17BytecodeGenerator20emitComplexPopScopesEPNS_18ControlFlowContextES2_
__ZN3WTF6VectorIN3JSC18ControlFlowContextELm0ENS_15CrashOnOverflowEEaSILm0ENS_20UnsafeVectorOverflowEEERS4_RKNS0_IS2_XT_ET0_EE
__ZN3WTF6VectorIN3JSC18ControlFlowContextELm0ENS_15CrashOnOverflowEE15reserveCapacityEm
__ZN3WTF6VectorIN3JSC18ControlFlowContextELm0ENS_20UnsafeVectorOverflowEEaSILm0ENS_15CrashOnOverflowEEERS4_RKNS0_IS2_XT_ET0_EE
__ZN3JSC17BytecodeGenerator17popFinallyContextEv
__ZN3WTF6VectorIN3JSC4Yarr13YarrGeneratorILNS2_18YarrJITCompileModeE0EE6YarrOpELm128ENS_15CrashOnOverflowEE14appendSlowCaseIS6_EEvRKT_
_cti_op_less
__ZN3JSC3DFG14SpeculativeJIT8arrayifyEPNS0_4NodeE
__ZN3JSC3DFG14SpeculativeJIT8arrayifyEPNS0_4NodeENS_12X86Registers10RegisterIDES5_
__ZN3JSC3DFG25ArrayifySlowPathGeneratorC2ERKNS_22AbstractMacroAssemblerINS_12X86AssemblerEE8JumpListEPNS0_14SpeculativeJITEPNS0_4NodeENS_12X86Registers10RegisterIDESD_SD_SD_
__ZN3JSC3DFG14SpeculativeJIT24backwardSpeculationCheckENS_8ExitKindENS0_13JSValueSourceEPNS0_4NodeE
__ZN3JSC3DFG25ArrayifySlowPathGenerator16generateInternalEPNS0_14SpeculativeJITE
__ZN3JSC3DFG14SpeculativeJIT13callOperationEPFPcPNS_9ExecStateEPNS_6JSCellEENS_12X86Registers10RegisterIDESA_
__ZN3JSC3DFG22OSRExitJumpPlaceholder4fillEPNS0_14SpeculativeJITERKNS_22AbstractMacroAssemblerINS_12X86AssemblerEE8JumpListE
__ZN3JSC3DFG14SpeculativeJIT13callOperationEPFvPNS_9ExecStateEPNS_8JSObjectEixENS_12X86Registers10RegisterIDES9_S9_
__ZN3JSC3DFG25ArrayifySlowPathGeneratorD0Ev
_operationEnsureContiguous
__ZN3JSC8JSObject20ensureContiguousSlowERNS_2VME
__ZN3JSC8JSObject20ensureContiguousSlowERNS_2VMENS0_22DoubleToContiguousModeE
_operationMakeRope3
__ZN3JSC3DFG12slowPathCallINS_22AbstractMacroAssemblerINS_12X86AssemblerEE4JumpEPFxPNS_9ExecStateExPNS_7JSArrayEENS0_11NoResultTagENS_12X86Registers10RegisterIDESE_SE_EEN3WTF10PassOwnPtrINS0_17SlowPathGeneratorEEET_PNS0_14SpeculativeJITET0_T1_T2_T3_T4_NS0_18SpillRegistersModeE
__ZN3JSC3DFG14SpeculativeJIT13callOperationEPFxPNS_9ExecStateExPNS_7JSArrayEENS_12X86Registers10RegisterIDES9_S9_
_operationArrayPush
_operationGetByIdProtoBuildList
_operationGetByIdProtoBuildListWithReturnAddress
__ZN3JSC3DFG24dfgBuildGetByIDProtoListEPNS_9ExecStateENS_7JSValueERKNS_10IdentifierERKNS_12PropertySlotERNS_17StructureStubInfoE
__ZN3JSC3DFG33mightInlineFunctionForClosureCallEPNS_9CodeBlockE
__ZN3JSC3DFG14SpeculativeJIT30compileObjectOrOtherLogicalNotENS0_4EdgeE
__ZN3JSC3DFG12GPRTemporary5adoptERS1_
__ZN3WTF6VectorIPN3JSC9StructureELm2ENS_15CrashOnOverflowEE15reserveCapacityEm
__ZN3JSC3DFG14SpeculativeJIT26compileStrictEqForConstantEPNS0_4NodeENS0_4EdgeENS_7JSValueE
_operationIsFunction
_operationLinkClosureCall
_virtualForWithFunction
__ZN3JSC3DFG14dfgLinkSlowForEPNS_9ExecStateERNS_12CallLinkInfoENS_22CodeSpecializationKindE
__ZN3JSC3DFGL11linkSlowForERNS_13RepatchBufferEPNS_2VMERNS_12CallLinkInfoENS_22CodeSpecializationKindE
__ZN3JSC3DFG25virtualCallThunkGeneratorEPNS_2VME
__ZN3JSC9CodeBlock17addConstantBufferERKN3WTF6VectorINS_7JSValueELm0ENS1_15CrashOnOverflowEEE
__ZN3WTF9HashTableIN3JSC3DFG17ConstantBufferKeyENS_12KeyValuePairIS3_jEENS_24KeyValuePairKeyExtractorIS5_EENS2_21ConstantBufferKeyHashENS_18HashMapValueTraitsINS_10HashTraitsIS3_EENSA_IjEEEESB_E16lookupForWritingINS_22IdentityHashTranslatorIS8_EES3_EENSt3__14pairIPS5_bEERKT0_
__ZN3WTF9HashTableIN3JSC3DFG17ConstantBufferKeyENS_12KeyValuePairIS3_jEENS_24KeyValuePairKeyExtractorIS5_EENS2_21ConstantBufferKeyHashENS_18HashMapValueTraitsINS_10HashTraitsIS3_EENSA_IjEEEESB_E3addINS_17HashMapTranslatorISD_S8_EES3_jEENS_18HashTableAddResultINS_17HashTableIteratorIS3_S5_S7_S8_SD_SB_EEEERKT0_RKT1_
__ZN3WTF9HashTableIN3JSC3DFG17ConstantBufferKeyENS_12KeyValuePairIS3_jEENS_24KeyValuePairKeyExtractorIS5_EENS2_21ConstantBufferKeyHashENS_18HashMapValueTraitsINS_10HashTraitsIS3_EENSA_IjEEEESB_E6lookupINS_22IdentityHashTranslatorIS8_EES3_EEPS5_RKT0_
__ZN3WTF9HashTableIPN3JSC15InlineCallFrameES3_NS_17IdentityExtractorENS_7PtrHashIS3_EENS_18NullableHashTraitsIS3_EES8_E3addINS_22IdentityHashTranslatorIS6_EES3_S3_EENS_18HashTableAddResultINS_17HashTableIteratorIS3_S3_S4_S6_S8_S8_EEEERKT0_RKT1_
__ZN3WTF9HashTableIPN3JSC15InlineCallFrameES3_NS_17IdentityExtractorENS_7PtrHashIS3_EENS_18NullableHashTraitsIS3_EES8_E6rehashEi
__ZN3JSC3DFG28ArgumentsSimplificationPhase14isOKToOptimizeEPNS0_4NodeE
__ZN3JSC3DFG14SpeculativeJIT13callOperationEPFxPNS_9ExecStateEiENS_12X86Registers10RegisterIDEi
__ZN3JSC3DFG14SpeculativeJIT13callOperationEPFvPNS_9ExecStateEPNS_6JSCellES5_ENS_12X86Registers10RegisterIDES9_
_operationCreateArguments
_getByVal
_operationTearOffArguments
__ZN3JSC9ExecState21isInlineCallFrameSlowEv
__ZN3JSC3DFG18dfgLinkClosureCallEPNS_9ExecStateERNS_12CallLinkInfoEPNS_9CodeBlockEPNS_9StructureEPNS_14ExecutableBaseENS_21MacroAssemblerCodePtrE
__ZN3JSC3DFG14SpeculativeJIT30compileAllocatePropertyStorageEPNS0_4NodeE
__ZN3JSC3DFG14SpeculativeJIT13callOperationEPFPcPNS_9ExecStateEENS_12X86Registers10RegisterIDE
__ZNSt3__127__insertion_sort_incompleteIRPFbRKN3JSC3DFG12MinifiedNodeES5_EPS3_EEbT0_SA_T_
_operationCompareStrictEq
__ZN3JSC3DFG14SpeculativeJIT32compileReallocatePropertyStorageEPNS0_4NodeE
__ZN3JSC3DFG14SpeculativeJIT13callOperationEPFPNS_6JSCellEPNS_9ExecStateES3_ENS_12X86Registers10RegisterIDES9_
__ZN3JSC3DFG14SpeculativeJIT13callOperationEPFPcPNS_9ExecStateEmENS_12X86Registers10RegisterIDEm
_operationAllocatePropertyStorage
__ZN3JSCL21arrayProtoFuncReverseEPNS_9ExecStateE
__ZN3JSC3DFG10FixupPhase13fixDoubleEdgeILNS0_7UseKindE4EEEvRNS0_4EdgeENS0_20SpeculationDirectionE
__ZN3JSC3DFG14SpeculativeJIT20compileInt32ToDoubleEPNS0_4NodeE
__ZN3JSC3DFG15AssemblyHelpers11unboxDoubleENS_12X86Registers10RegisterIDENS2_13XMMRegisterIDE
__ZN3JSC3DFG14SpeculativeJIT20compileDoubleCompareEPNS0_4NodeENS_23MacroAssemblerX86Common15DoubleConditionE
__ZN3JSC3DFG14SpeculativeJIT19fillSpeculateDoubleENS0_4EdgeE
_operationMakeRope2
_operationPutByIdNonStrictBuildList
_operationPutByIdNonStrictBuildListWithReturnAddress
__ZN3JSC3DFG19dfgBuildPutByIdListEPNS_9ExecStateENS_7JSValueERKNS_10IdentifierERKNS_15PutPropertySlotERNS_17StructureStubInfoENS_7PutKindE
__ZN3JSC22PolymorphicPutByIdList4fromENS_7PutKindERNS_17StructureStubInfoENS_21MacroAssemblerCodePtrE
__ZN3JSC22PolymorphicPutByIdListC2ENS_7PutKindERNS_17StructureStubInfoENS_21MacroAssemblerCodePtrE
__ZN3JSC22PolymorphicPutByIdList9addAccessERKNS_13PutByIdAccessE
__ZN3WTF6VectorIN3JSC13PutByIdAccessELm2ENS_15CrashOnOverflowEE6resizeEm
__ZNK3JSC22PolymorphicPutByIdList6isFullEv
__ZN3JSC3DFG14SpeculativeJIT13callOperationEPFxPNS_9ExecStateExENS_12X86Registers10RegisterIDES7_
_operationCompareStringEq
__ZN3JSCL16mathProtoFuncMinEPNS_9ExecStateE
_jsRoundThunk
_jsRound
__ZN3JSC17absThunkGeneratorEPNS_2VME
__ZN3JSC23MacroAssemblerX86Common9absDoubleENS_12X86Registers13XMMRegisterIDES2_
__ZN3JSCL16mathProtoFuncAbsEPNS_9ExecStateE
_cti_op_get_by_id_getter_stub
__ZN3JSC22createNotAnObjectErrorEPNS_9ExecStateENS_7JSValueE
__ZN3JSC15createTypeErrorEPNS_9ExecStateERKN3WTF6StringE
__ZN3JSC3DFG22CFGSimplificationPhase15killUnreachableEj
__ZN3JSC39CompressedLazyOperandValueProfileHolder3addERKNS_26LazyOperandValueProfileKeyE
__ZN3WTF15SegmentedVectorIN3JSC23LazyOperandValueProfileELm8ELm32EE6appendIS2_EEvRKT_
__ZN3WTF6VectorIPNS0_IN3JSC23LazyOperandValueProfileELm8ENS_15CrashOnOverflowEEELm0ES3_E14expandCapacityEm
__ZN3WTF6VectorIN3JSC3DFG11ValueSourceELm16ENS_15CrashOnOverflowEE15reserveCapacityEm
__ZN3WTF6VectorIN3JSC13ValueRecoveryELm16ENS_15CrashOnOverflowEE15reserveCapacityEm
__ZN3JSC4Yarr13YarrGeneratorILNS0_18YarrJITCompileModeE1EE27generateCharacterClassFixedEm
__ZN3WTF7HashMapImmNS_7IntHashImEENS_10HashTraitsImEES4_E6removeENS_24HashTableIteratorAdapterINS_9HashTableImNS_12KeyValuePairImmEENS_24KeyValuePairKeyExtractorIS9_EES2_NS_18HashMapValueTraitsIS4_S4_EES4_EES9_EE
__ZN3JSC30FixedVMPoolExecutableAllocator16notifyPageIsFreeEPv
__ZN3WTF11OSAllocator8decommitEPvm
__ZN3WTF15SegmentedVectorIN3JSC23LazyOperandValueProfileELm8ELm32EED2Ev
__ZN3WTF6VectorINS_6OwnPtrIN3JSC9CodeBlockEEELm16ENS_15CrashOnOverflowEE15reserveCapacityEm
__ZN3JSC22PolymorphicPutByIdListD1Ev
__ZN3JSC41MarkingGCAwareJITStubRoutineWithOneObjectD0Ev
__ZN3WTF6OwnPtrI24OpaqueJSClassContextDataED2Ev
__ZN3JSC5LexerIhE19parseStringSlowCaseILb0EEENS1_17StringParseResultEPNS_11JSTokenDataEb
__ZN3JSC5LexerIhE24parseFourDigitUnicodeHexEv
__ZN3JSC4Yarr13YarrCodeBlock5clearEv
__ZN3JSC3DFG14SpeculativeJIT10checkArrayEPNS0_4NodeE
__ZN3JSC3DFG14SpeculativeJIT28jumpSlowForUnwantedArrayModeENS_12X86Registers10RegisterIDENS0_9ArrayModeE
__ZN3JSC3DFG14SpeculativeJIT24backwardSpeculationCheckENS_8ExitKindENS0_13JSValueSourceEPNS0_4NodeERKNS_22AbstractMacroAssemblerINS_12X86AssemblerEE8JumpListE
__ZN3JSC8OperandsINS_13ValueRecoveryENS_18OperandValueTraitsIS1_EEE8setLocalEmRKS1_
__ZN3WTF37parseDateFromNullTerminatedCharactersEPKc
__ZN3JSC20StringSourceProviderD0Ev
__ZN3JSC3DFG8CSEPhaseILNS0_7CSEModeE1EE25scopedVarStoreEliminationEPNS0_4NodeES5_j
__ZN3JSC3DFG12FPRTemporaryC1EPNS0_14SpeculativeJITE
__ZN3JSC20MacroAssemblerX86_647store64ENS_22AbstractMacroAssemblerINS_12X86AssemblerEE12TrustedImm64ENS3_9BaseIndexE
__ZN3JSC3DFG14SpeculativeJIT13callOperationEPFxPNS_9ExecStateEPNS_7JSArrayEENS_12X86Registers10RegisterIDES9_
__ZNK3JSC22PolymorphicPutByIdList9visitWeakEv
__ZNK3JSC13PutByIdAccess9visitWeakEv
__ZN3WTF24numberToFixedWidthStringEdjPc
__ZNK3WTF17double_conversion23DoubleToStringConverter7ToFixedEdiPNS0_13StringBuilderE
__ZN3WTF17double_conversion13FastFixedDtoaEdiNS0_15BufferReferenceIcEEPiS3_
__ZN3WTF17double_conversionL15FillFractionalsEyiiNS0_15BufferReferenceIcEEPiS3_
__ZN3WTF10StringImpl23defaultWritingDirectionEPb
__ZN3WTF20fastMallocStatisticsEv
__ZN3JSC4Heap4sizeEv
__ZN3JSC4Heap8capacityEv
__ZN3JSC11CopiedSpace8capacityEv
__ZN3JSC22globalMemoryStatisticsEv
__ZN3JSC7JSStack18committedByteCountEv
__ZN3JSC19ExecutableAllocator18committedByteCountEv
__ZN3WTF14FastMallocZone10statisticsEP14_malloc_zone_tP19malloc_statistics_t
__ZN3WTF9BitVector15resizeOutOfLineEm
__ZN3WTF9BitVector8clearAllEv
__ZN3JSC6ParserINS_5LexerIhEEE8getLabelEPKNS_10IdentifierE
__ZN3JSC5Scope9pushLabelEPKNS_10IdentifierEb
__ZN3JSC9LabelNode12emitBytecodeERNS_17BytecodeGeneratorEPNS_10RegisterIDE
__ZN3JSC7JSScope30resolveContainingScopeInternalILNS0_10LookupModeE1ELNS0_12ReturnValuesE2EEEPNS_8JSObjectEPNS_9ExecStateERKNS_10IdentifierERNS_12PropertySlotEPN3WTF6VectorINS_16ResolveOperationELm0ENSD_15CrashOnOverflowEEEPNS_18PutToBaseOperationEb
_cti_op_put_by_id_direct_generic
__ZN3WTF6String6numberEdjNS_29TrailingZerosTruncatingPolicyE
__ZN3WTF28numberToFixedPrecisionStringEdjPcb
__ZNK3WTF17double_conversion23DoubleToStringConverter11ToPrecisionEdiPNS0_13StringBuilderE
__ZN3JSC17RegExpConstructor11getCallDataEPNS_6JSCellERNS_8CallDataE
__ZN3JSCL21callRegExpConstructorEPNS_9ExecStateE
__ZN3WTF22charactersToUIntStrictEPKhmPbi
__ZN3JSC13LiteralParserIhE5Lexer3lexILNS_10ParserModeE1EEENS_9TokenTypeERNS_18LiteralParserTokenIhEE
__ZN3JSC10ASTBuilder19makeURightShiftNodeERKNS_15JSTokenLocationEPNS_14ExpressionNodeES5_b
__ZN3JSC16ErrorConstructor11getCallDataEPNS_6JSCellERNS_8CallDataE
__ZN3JSCL20callErrorConstructorEPNS_9ExecStateE
__ZN3JSC9Arguments15copyToArgumentsEPNS_9ExecStateES2_j
__ZN3JSC6ParserINS_5LexerIhEEE21parseDoWhileStatementINS_10ASTBuilderEEENT_9StatementERS6_
__ZN3JSCL21functionProtoFuncCallEPNS_9ExecStateE
__ZNK3JSC7ArgList8getSliceEiRS0_
__ZN3JSCL21functionProtoFuncBindEPNS_9ExecStateE
__ZN3JSC10JSFunction12lengthGetterEPNS_9ExecStateENS_7JSValueENS_12PropertyNameE
__ZN3JSC15JSBoundFunction6createEPNS_9ExecStateEPNS_14JSGlobalObjectEPNS_8JSObjectENS_7JSValueES7_iRKN3WTF6StringE
__ZN3JSC10JSFunction16getConstructDataEPNS_6JSCellERNS_13ConstructDataE
__ZN3JSC10JSFunctionC2EPNS_9ExecStateEPNS_14JSGlobalObjectEPNS_9StructureE
__ZN3JSC15JSBoundFunction14finishCreationEPNS_9ExecStateEPNS_16NativeExecutableEiRKN3WTF6StringE
__ZN3JSC14JSGlobalObject20createThrowTypeErrorEPNS_9ExecStateE
__ZN3JSC17boundFunctionCallEPNS_9ExecStateE
_cti_op_lesseq
__ZN3JSC8JSObject45putByIndexBeyondVectorLengthWithoutAttributesILh20EEEvPNS_9ExecStateEjNS_7JSValueE
_cti_op_construct_jitCompile
__ZN3JSC3JIT17emit_op_call_evalEPNS_11InstructionE
__ZN3JSC3JIT15compileCallEvalEv
__ZN3JSC3JIT21emitSlow_op_call_evalEPNS_11InstructionERPNS_13SlowCaseEntryE
__ZN3JSC3JIT23compileCallEvalSlowCaseERPNS_13SlowCaseEntryE
__ZN3JSC3JIT16emit_op_jnlesseqEPNS_11InstructionE
__ZN3JSC3JIT15emit_op_jlesseqEPNS_11InstructionE
__ZN3JSC3JIT20emitSlow_op_jnlesseqEPNS_11InstructionERPNS_13SlowCaseEntryE
__ZN3JSC3JIT19emitSlow_op_jlesseqEPNS_11InstructionERPNS_13SlowCaseEntryE
_cti_op_construct_arityCheck
__ZN3JSC8JSObject44putByIndexBeyondVectorLengthWithArrayStorageEPNS_9ExecStateEjNS_7JSValueEbPNS_12ArrayStorageE
__ZN3JSC3DFG14SpeculativeJIT36nonSpeculativeNonPeepholeCompareNullENS0_4EdgeEb
__ZN3JSC17powThunkGeneratorEPNS_2VME
__ZN3JSC18BooleanConstructor11getCallDataEPNS_6JSCellERNS_8CallDataE
__ZN3JSCL22callBooleanConstructorEPNS_9ExecStateE
__ZNK3JSC7JSValue19toWTFStringSlowCaseEPNS_9ExecStateE
__ZN3JSC4Yarr6ParserINS0_22YarrPatternConstructorEtE11parseTokensEv
__ZN3JSC4Yarr6ParserINS0_22YarrPatternConstructorEtE19parseCharacterClassEv
__ZN3JSC4Yarr6ParserINS0_22YarrPatternConstructorEtE28CharacterClassParserDelegate20atomPatternCharacterEtb
__ZN3JSC4Yarr6ParserINS0_22YarrPatternConstructorEtE21parseParenthesesBeginEv
__ZN3JSC4Yarr6ParserINS0_22YarrPatternConstructorEtE11parseEscapeILb0ES2_EEbRT0_
__ZN3JSC6ParserINS_5LexerIhEEE5parseINS_8EvalNodeEEEN3WTF10PassRefPtrIT_EERNS_11ParserErrorE
__ZN3WTF9HashTableINS_6RefPtrINS_10StringImplEEENS_12KeyValuePairIS3_N3JSC12WriteBarrierINS5_14EvalExecutableEEEEENS_24KeyValuePairKeyExtractorIS9_EENS_10StringHashENS_22KeyValuePairHashTraitsINS_10HashTraitsIS3_EENSE_IS8_EEEESF_E3addINS_17HashMapTranslatorISH_SC_EEPS2_S8_EENS_18HashTableAddResultINS_17HashTableIteratorIS3_S9_SB_SC_SH_SF_EEEERKT0_RKT1_
__ZN3WTF9HashTableINS_6RefPtrINS_10StringImplEEENS_12KeyValuePairIS3_N3JSC12WriteBarrierINS5_14EvalExecutableEEEEENS_24KeyValuePairKeyExtractorIS9_EENS_10StringHashENS_22KeyValuePairHashTraitsINS_10HashTraitsIS3_EENSE_IS8_EEEESF_E6lookupINS_17HashMapTranslatorISH_SC_EEPS2_EEPS9_RKT0_
__ZN3WTF9HashTableINS_6RefPtrINS_10StringImplEEENS_12KeyValuePairIS3_N3JSC12WriteBarrierINS5_14EvalExecutableEEEEENS_24KeyValuePairKeyExtractorIS9_EENS_10StringHashENS_22KeyValuePairHashTraitsINS_10HashTraitsIS3_EENSE_IS8_EEEESF_E6rehashEi
__ZN3WTF9HashTableINS_6RefPtrINS_10StringImplEEENS_12KeyValuePairIS3_N3JSC12WriteBarrierINS5_14EvalExecutableEEEEENS_24KeyValuePairKeyExtractorIS9_EENS_10StringHashENS_22KeyValuePairHashTraitsINS_10HashTraitsIS3_EENSE_IS8_EEEESF_E8reinsertERS9_
_operationVirtualCall
__ZN3JSC3DFG14SpeculativeJIT29compilePeepHoleObjectEqualityEPNS0_4NodeES3_
__ZNK3WTF10StringImpl10startsWithEt
__ZN3JSCL25numberConstructorMaxValueEPNS_9ExecStateENS_7JSValueENS_12PropertyNameE
_JSStringCreateWithCharactersNoCopy
__ZN3WTF10StringImpl20createWithoutCopyingEPKtjNS_27HasTerminatingNullCharacterE
__ZN3JSC4Yarr25CharacterClassConstructor20putUnicodeIgnoreCaseEtPNS0_25UCS2CanonicalizationRangeE
__ZN3JSC8JSString25getOwnPropertySlotByIndexEPNS_6JSCellEPNS_9ExecStateEjRNS_12PropertySlotE
_operationCompareStrictEqCell
__ZNK3JSC8JSObject11hasPropertyEPNS_9ExecStateEj
__ZN3JSC18globalFuncIsFiniteEPNS_9ExecStateE
__ZN3JSC11JSWithScope13visitChildrenEPNS_6JSCellERNS_11SlotVisitorE
__ZN3JSC15JSBoundFunction13visitChildrenEPNS_6JSCellERNS_11SlotVisitorE
__ZN3JSC14EvalExecutable13visitChildrenEPNS_6JSCellERNS_11SlotVisitorE
__ZN3JSC15JSBoundFunction7destroyEPNS_6JSCellE
_cti_op_call_eval
__ZN3JSC3DFG14SpeculativeJIT21compileBooleanCompareEPNS0_4NodeENS_23MacroAssemblerX86Common19RelationalConditionE
__ZN3JSC3DFG14SpeculativeJIT13callOperationEPFxPNS_9ExecStateEPNS_6JSCellEENS_12X86Registers10RegisterIDES5_
_operationNewFunction
__ZN3JSC3DFG14SpeculativeJIT20emitAllocateJSObjectINS_12X86Registers10RegisterIDENS_22AbstractMacroAssemblerINS_12X86AssemblerEE13TrustedImmPtrEEEvS4_S4_T_T0_S4_RNS7_8JumpListE
__ZN3JSC3DFG12slowPathCallINS_22AbstractMacroAssemblerINS_12X86AssemblerEE8JumpListEPFPNS_6JSCellEPNS_9ExecStateEPNS_8JSObjectEiENS_12X86Registers10RegisterIDESF_jEEN3WTF10PassOwnPtrINS0_17SlowPathGeneratorEEET_PNS0_14SpeculativeJITET0_T1_T2_T3_NS0_18SpillRegistersModeE
__ZN3JSC3DFG14SpeculativeJIT13callOperationEPFPNS_6JSCellEPNS_9ExecStateEPNS_8JSObjectEiENS_12X86Registers10RegisterIDESB_i
_operationCreateThis
__ZN3WTF6VectorINSt3__14pairIPN3JSC8JSObjectEjEELm4ENS_15CrashOnOverflowEE15reserveCapacityEm
__ZN3JSC10ASTBuilder18makeRightShiftNodeERKNS_15JSTokenLocationEPNS_14ExpressionNodeES5_b
__ZN3JSCL23objectConstructorCreateEPNS_9ExecStateE
__ZN3JSC19globalFuncDecodeURIEPNS_9ExecStateE
__ZN3JSC3DFG14ByteCodeParser30handleConstantInternalFunctionEbiPNS_16InternalFunctionEiijNS_22CodeSpecializationKindE
__ZN3WTF13StringBuilder12appendNumberEm
__ZN3JSC2VM14discardAllCodeEv
__ZN3JSC4Heap21deleteAllCompiledCodeEv
__ZN3JSC18FunctionExecutable23clearCodeIfNotCompilingEv
__ZN3WTF27releaseFastMallocFreeMemoryEv
__ZN3WTF17TCMalloc_PageHeap15ReleaseFreeListEPNS_4SpanES2_
__ZN3JSC26UnlinkedFunctionExecutable7destroyEPNS_6JSCellE
__ZN3JSC25UnlinkedFunctionCodeBlock7destroyEPNS_6JSCellE
__ZN3JSC17UnlinkedCodeBlockD2Ev
__ZN3JSC17UnlinkedCodeBlock8RareDataD2Ev
__ZN3JSC24UnlinkedProgramCodeBlock7destroyEPNS_6JSCellE
__ZN3JSC24UnlinkedProgramCodeBlockD2Ev
__ZN3JSC8JSObject45putByIndexBeyondVectorLengthWithoutAttributesILh22EEEvPNS_9ExecStateEjNS_7JSValueE
__ZN3WTF10StringImpl16findIgnoringCaseEPS0_j
__ZN3WTF6String8truncateEj
__ZN3JSC6ParserINS_5LexerItEEE20parseSwitchStatementINS_10ASTBuilderEEENT_9StatementERS6_
__ZN3JSC6ParserINS_5LexerItEEE18parseSwitchClausesINS_10ASTBuilderEEENT_10ClauseListERS6_
__ZN3JSC6ParserINS_5LexerItEEE24parseSwitchDefaultClauseINS_10ASTBuilderEEENT_6ClauseERS6_
__ZN3WTF17double_conversion10BignumDtoaEdNS0_14BignumDtoaModeEiNS0_15BufferReferenceIcEEPiS4_
__ZN3WTF17double_conversion6BignumC1Ev
__ZN3WTF17double_conversion6Bignum12AssignUInt64Ey
__ZN3WTF17double_conversion6Bignum17AssignPowerUInt16Eti
__ZN3WTF17double_conversion6Bignum9ShiftLeftEi
__ZN3WTF17double_conversion6Bignum11PlusCompareERKS1_S3_S3_
__ZN3WTF17double_conversion6Bignum16MultiplyByUInt32Ej
__ZN3WTF17double_conversion6Bignum7CompareERKS1_S3_
__ZN3WTF17double_conversion6Bignum12AssignBignumERKS1_
__ZN3WTF17double_conversionL21GenerateCountedDigitsEiPiPNS0_6BignumES3_NS0_15BufferReferenceIcEES1_
__ZN3WTF17double_conversion6Bignum21DivideModuloIntBignumERKS1_
__ZN3WTF17double_conversion6Bignum13SubtractTimesERKS1_i
__ZN3WTF17double_conversion6Bignum14SubtractBignumERKS1_
_operationPutByValBeyondArrayBoundsNonStrict
__ZN3JSC8JSObject16putByIndexInlineEPNS_9ExecStateEjNS_7JSValueEb
__ZN3JSC3JIT25emit_op_resolve_with_baseEPNS_11InstructionE
__ZN3JSC3JIT29emitSlow_op_resolve_with_baseEPNS_11InstructionERPNS_13SlowCaseEntryE
__ZN3WTF22cancelCallOnMainThreadEPFvPvES0_
__ZN3JSC7JSArray4sortEPNS_9ExecStateE
__ZN3JSC7JSArray17compactForSortingILh27EEEvRjS2_
__ZN3JSC7JSArray19sortCompactedVectorILh27ENS_12WriteBarrierINS_7UnknownEEEEEvPNS_9ExecStateENS_14ContiguousDataIT0_EEj
__ZN3JSC4Heap18pushTempSortVectorEPN3WTF6VectorINSt3__14pairINS_7JSValueENS1_6StringEEELm0ENS1_20UnsafeVectorOverflowEEE
__ZN3WTF6VectorIPNS0_INSt3__14pairIN3JSC7JSValueENS_6StringEEELm0ENS_20UnsafeVectorOverflowEEELm0ENS_15CrashOnOverflowEE14expandCapacityEm
__ZN3JSCL27compareByStringPairForQSortEPKvS1_
__ZN3JSC4Heap17popTempSortVectorEPN3WTF6VectorINSt3__14pairINS_7JSValueENS1_6StringEEELm0ENS1_20UnsafeVectorOverflowEEE
__ZN3JSC8JSObject48convertDoubleToContiguousWhilePerformingSetIndexERNS_2VMEjNS_7JSValueE
__ZNK3JSC8JSObject8toStringEPNS_9ExecStateE
__ZN3WTF6String6appendEPKtj
__ZN3WTF13tryFastCallocEmm
__ZN3WTF15ArrayBufferViewC2ENS_10PassRefPtrINS_11ArrayBufferEEEj
__ZN3WTF11ArrayBuffer7addViewEPNS_15ArrayBufferViewE
__ZN3JSC17NumberConstructor11getCallDataEPNS_6JSCellERNS_8CallDataE
__ZN3JSCL21callNumberConstructorEPNS_9ExecStateE
__ZN3WTF15ArrayBufferViewD2Ev
__ZN3WTF11ArrayBuffer10removeViewEPNS_15ArrayBufferViewE
__ZN3JSC17BytecodeGenerator14emitPutByIndexEPNS_10RegisterIDEjS2_
__ZN3JSC13LiteralParserItE5Lexer3lexILNS_10ParserModeE0EEENS_9TokenTypeERNS_18LiteralParserTokenItEE
__ZN3JSC4Yarr13YarrGeneratorILNS0_18YarrJITCompileModeE1EE29generateAssertionWordBoundaryEm
__ZN3JSC4Yarr13YarrGeneratorILNS0_18YarrJITCompileModeE1EE22matchAssertionWordcharEmRNS_22AbstractMacroAssemblerINS_12X86AssemblerEE8JumpListES8_
__ZN3JSC8JSObject20convertInt32ForValueERNS_2VMENS_7JSValueE
__ZN3JSC13JSNotAnObject18getOwnPropertySlotEPNS_6JSCellEPNS_9ExecStateENS_12PropertyNameERNS_12PropertySlotE
__ZN3JSC9CodeBlock32expressionRangeForBytecodeOffsetEjRiS1_S1_RjS2_
__ZN3WTF10makeStringINS_6StringEPKcS1_S3_EES1_T_T0_T1_T2_
__ZN3WTF13tryMakeStringINS_6StringEPKcS1_S3_EENS_10PassRefPtrINS_10StringImplEEET_T0_T1_T2_
__ZN3JSC11Interpreter15unwindCallFrameERPNS_9ExecStateENS_7JSValueERjRPNS_9CodeBlockE
_ctiOpThrowNotCaught
__ZN3JSC11Interpreter17ErrorHandlingModeC1EPNS_9ExecStateE
__ZN3JSC7JSStack23enableErrorStackReserveEv
__ZN3JSCL22errorProtoFuncToStringEPNS_9ExecStateE
__ZN3JSC22jsMakeNontrivialStringIN3WTF6StringEPKcS2_EENS_7JSValueEPNS_9ExecStateET_T0_T1_
__ZN3JSC11Interpreter17ErrorHandlingModeD1Ev
__ZN3JSC7JSStack24disableErrorStackReserveEv
__ZN3JSC12ConstantNode30emitBytecodeInConditionContextERNS_17BytecodeGeneratorEPNS_5LabelES4_NS_15FallThroughModeE
_cti_op_dec
_cti_op_bitand
__ZN3WTF10StringImpl4fillEt
__ZNK3WTF6String15stripWhiteSpaceEPFbtE
__ZN3WTF10StringImpl15stripWhiteSpaceEPFbtE
__ZN3WTF10StringImpl22stripMatchedCharactersINS_14UCharPredicateEEENS_10PassRefPtrIS0_EET_
__ZNK3WTF6String18simplifyWhiteSpaceEPFbtE
__ZN3WTF10StringImpl18simplifyWhiteSpaceEPFbtE
__ZN3WTF10StringImpl32simplifyMatchedCharactersToSpaceIhNS_14UCharPredicateEEENS_10PassRefPtrIS0_EET0_
_cti_op_to_primitive
_cti_op_to_number
_cti_op_jgreatereq
__ZN3JSCL16mathProtoFuncPowEPNS_9ExecStateE
_cti_op_jgreater
__ZN3WTF6VectorIN3JSC4Yarr13YarrGeneratorILNS2_18YarrJITCompileModeE1EE6YarrOpELm128ENS_15CrashOnOverflowEE15reserveCapacityEm
__ZN3JSC3JIT18emitDoubleGetByValEPNS_11InstructionERNS_22AbstractMacroAssemblerINS_12X86AssemblerEE13PatchableJumpE
__ZN3WTF9HashTableIN3JSC26LazyOperandValueProfileKeyENS_12KeyValuePairIS2_PNS1_23LazyOperandValueProfileEEENS_24KeyValuePairKeyExtractorIS6_EENS1_30LazyOperandValueProfileKeyHashENS_18HashMapValueTraitsINS_10HashTraitsIS2_EENSB_IS5_EEEESC_E16lookupForWritingINS_22IdentityHashTranslatorIS9_EES2_EENSt3__14pairIPS6_bEERKT0_
__ZN3WTF9HashTableIN3JSC26LazyOperandValueProfileKeyENS_12KeyValuePairIS2_PNS1_23LazyOperandValueProfileEEENS_24KeyValuePairKeyExtractorIS6_EENS1_30LazyOperandValueProfileKeyHashENS_18HashMapValueTraitsINS_10HashTraitsIS2_EENSB_IS5_EEEESC_E3addINS_17HashMapTranslatorISE_S9_EES2_S5_EENS_18HashTableAddResultINS_17HashTableIteratorIS2_S6_S8_S9_SE_SC_EEEERKT0_RKT1_
__ZN3WTF9HashTableIN3JSC26LazyOperandValueProfileKeyENS_12KeyValuePairIS2_PNS1_23LazyOperandValueProfileEEENS_24KeyValuePairKeyExtractorIS6_EENS1_30LazyOperandValueProfileKeyHashENS_18HashMapValueTraitsINS_10HashTraitsIS2_EENSB_IS5_EEEESC_E6rehashEi
_cti_op_resolve_base
__ZN3JSC3DFG14SpeculativeJIT24emitAllocateBasicStorageINS_12X86Registers10RegisterIDEEENS_22AbstractMacroAssemblerINS_12X86AssemblerEE4JumpET_S4_
__ZN3JSC3DFG14SpeculativeJIT20emitAllocateJSObjectINS_22AbstractMacroAssemblerINS_12X86AssemblerEE6ImmPtrENS_12X86Registers10RegisterIDEEEvS8_S8_T_T0_S8_RNS5_8JumpListE
__ZN3JSC14MacroAssembler8storePtrENS_22AbstractMacroAssemblerINS_12X86AssemblerEE6ImmPtrENS3_7AddressE
__ZN3JSC3DFG51CallArrayAllocatorWithVariableSizeSlowPathGeneratorC2ENS_22AbstractMacroAssemblerINS_12X86AssemblerEE8JumpListEPNS0_14SpeculativeJITEPFPcPNS_9ExecStateEPNS_9StructureEiENS_12X86Registers10RegisterIDESC_SC_SG_
__ZN3JSC3DFG14SpeculativeJIT28jumpSlowForUnwantedArrayModeENS_12X86Registers10RegisterIDENS0_9ArrayModeEh
__ZN3JSC3DFG51CallArrayAllocatorWithVariableSizeSlowPathGenerator16generateInternalEPNS0_14SpeculativeJITE
__ZN3JSC3DFG14SpeculativeJIT13callOperationEPFPcPNS_9ExecStateEPNS_9StructureEiENS_12X86Registers10RegisterIDESA_SA_
__ZN3JSC3DFG51CallArrayAllocatorWithVariableSizeSlowPathGeneratorD0Ev
__ZN3JSC12JSLockHolderC1ERNS_2VME
__ZN3JSC3JIT26emit_op_ret_object_or_thisEPNS_11InstructionE
__ZN3JSC10ASTBuilder17makeLeftShiftNodeERKNS_15JSTokenLocationEPNS_14ExpressionNodeES5_b
__ZN3WTF6VectorIN3JSC4Yarr13YarrGeneratorILNS2_18YarrJITCompileModeE1EE6YarrOpELm128ENS_15CrashOnOverflowEE14appendSlowCaseIS6_EEvRKT_
__ZN3WTF6VectorIiLm32ENS_15CrashOnOverflowEE15reserveCapacityEm
__ZN3JSC3JIT14emit_op_negateEPNS_11InstructionE
__ZN3JSC3JIT18emitSlow_op_negateEPNS_11InstructionERPNS_13SlowCaseEntryE
__ZN3JSC3DFG14SpeculativeJIT15compileValueAddEPNS0_4NodeE
_operationValueAdd
__ZN3JSC17BytecodeGenerator16isArgumentNumberERKNS_10IdentifierEi
__ZN3JSC17BytecodeGenerator27setIsNumericCompareFunctionEb
__ZN3JSC7JSArray11sortNumericEPNS_9ExecStateENS_7JSValueENS_8CallTypeERKNS_8CallDataE
__ZN3JSCL31compareNumbersForQSortWithInt32EPKvS1_
__ZN3JSC17DeleteResolveNode12emitBytecodeERNS_17BytecodeGeneratorEPNS_10RegisterIDE
__ZN3JSC17BytecodeGenerator8emitLoadEPNS_10RegisterIDEb
__ZN3JSCL24regExpConstructorDollar1EPNS_9ExecStateENS_7JSValueENS_12PropertyNameE
__ZN3JSC18RegExpCachedResult10lastResultEPNS_9ExecStateEPNS_8JSObjectE
__ZN3JSCL24regExpConstructorDollar2EPNS_9ExecStateENS_7JSValueENS_12PropertyNameE
_cti_op_resolve_with_base
_cti_op_jless
__ZNK3WTF6String6latin1Ev
__ZN3WTF6VectorIN3JSC3DFG17ResolveGlobalDataELm0ENS_15CrashOnOverflowEE15reserveCapacityEm
__ZN3JSC3DFG14SpeculativeJIT32nonSpeculativeNonPeepholeCompareEPNS0_4NodeENS_23MacroAssemblerX86Common19RelationalConditionEPFmPNS_9ExecStateExxE
__ZN3JSC3DFG14SpeculativeJIT13callOperationEPFxPNS_9ExecStateEPNS_16ResolveOperationEPNS_14JSGlobalObjectEPNS_10IdentifierEENS_12X86Registers10RegisterIDESD_SD_S9_
_operationResolveGlobal
__ZN3JSC7JSScope13resolveGlobalEPNS_9ExecStateERKNS_10IdentifierEPNS_14JSGlobalObjectEPNS_16ResolveOperationE
__ZN3JSC18sqrtThunkGeneratorEPNS_2VME
__ZN3JSC3DFG14ByteCodeParser12handleMinMaxEbiNS0_8NodeTypeEii
__ZN3JSC3DFG12GPRTemporaryC1EPNS0_14SpeculativeJITERNS0_27SpeculateStrictInt32OperandE
__ZN3JSC3DFG12GPRTemporaryC2EPNS0_14SpeculativeJITERNS0_27SpeculateStrictInt32OperandE
__ZN3JSC3DFG12FPRTemporaryC1EPNS0_14SpeculativeJITERNS0_22SpeculateDoubleOperandE
__ZN3JSC3DFG12FPRTemporaryC2EPNS0_14SpeculativeJITERNS0_22SpeculateDoubleOperandE
__ZN3JSC3DFG15AssemblyHelpers9boxDoubleENS_12X86Registers13XMMRegisterIDENS2_10RegisterIDE
__ZN3JSC3DFG12GPRTemporaryC1EPNS0_14SpeculativeJITERNS0_23SpeculateIntegerOperandE
__ZN3JSC3DFG12GPRTemporaryC2EPNS0_14SpeculativeJITERNS0_23SpeculateIntegerOperandE
__ZN3JSC23MacroAssemblerX86Common9compare32ENS0_19RelationalConditionENS_12X86Registers10RegisterIDENS_22AbstractMacroAssemblerINS_12X86AssemblerEE12TrustedImm32ES3_
_cti_op_mod
__ZN3JSC3DFG14SpeculativeJIT21compileObjectEqualityEPNS0_4NodeE
__ZN3JSCL24dateProtoFuncToUTCStringEPNS_9ExecStateE
__ZN3JSC18ceilThunkGeneratorEPNS_2VME
__ZN3JSC3JIT15emit_op_eq_nullEPNS_11InstructionE
__ZN3JSC17UnlinkedCodeBlock27addImmediateSwitchJumpTableEv
__ZN3WTF6VectorIN3JSC23UnlinkedSimpleJumpTableELm0ENS_15CrashOnOverflowEE14appendSlowCaseIS2_EEvRKT_
__ZN3WTF6VectorIN3JSC23UnlinkedSimpleJumpTableELm0ENS_15CrashOnOverflowEE15reserveCapacityEm
__ZN3WTF20VectorTypeOperationsIN3JSC23UnlinkedSimpleJumpTableEE4moveEPKS2_S5_PS2_
__ZN3WTF6VectorIiLm0ENS_15CrashOnOverflowEE4fillERKim
__ZN3WTF6VectorIN3JSC15SimpleJumpTableELm0ENS_15CrashOnOverflowEE15reserveCapacityEm
__ZN3WTF6VectorIiLm0ENS_15CrashOnOverflowEEaSERKS2_
__ZN3JSC3JIT18emit_op_switch_immEPNS_11InstructionE
__ZN3WTF6VectorIN3JSC17CodeLocationLabelELm0ENS_15CrashOnOverflowEE15reserveCapacityEm
__ZN3WTF20VectorTypeOperationsIN3JSC15SimpleJumpTableEE4moveEPKS2_S5_PS2_
__ZN3JSC15SimpleJumpTableC2ERKS0_
_cti_op_switch_imm
__ZN3JSCL9dateParseEPNS_9ExecStateE
__ZN3JSC3JIT14emit_op_lshiftEPNS_11InstructionE
__ZN3JSC14MacroAssembler5and64ENS_22AbstractMacroAssemblerINS_12X86AssemblerEE5Imm32ENS_12X86Registers10RegisterIDE
__ZN3JSC3JIT14emit_op_rshiftEPNS_11InstructionE
__ZN3JSC3JIT18emitSlow_op_lshiftEPNS_11InstructionERPNS_13SlowCaseEntryE
__ZN3JSC3JIT18emitSlow_op_rshiftEPNS_11InstructionERPNS_13SlowCaseEntryE
__ZN3WTF6String26fromUTF8WithLatin1FallbackEPKhm
_ceilThunk
__ZN3JSC19SparseArrayValueMap6createERNS_2VME
__ZN3JSC19SparseArrayValueMap8putEntryEPNS_9ExecStateEPNS_8JSObjectEjNS_7JSValueEb
__ZN3WTF9HashTableIyNS_12KeyValuePairIyN3JSC16SparseArrayEntryEEENS_24KeyValuePairKeyExtractorIS4_EENS_7IntHashIyEENS_18HashMapValueTraitsINS_29UnsignedWithZeroKeyHashTraitsIyEENS_10HashTraitsIS3_EEEESB_E16lookupForWritingINS_22IdentityHashTranslatorIS8_EEyEENSt3__14pairIPS4_bEERKT0_
__ZN3WTF9HashTableIyNS_12KeyValuePairIyN3JSC16SparseArrayEntryEEENS_24KeyValuePairKeyExtractorIS4_EENS_7IntHashIyEENS_18HashMapValueTraitsINS_29UnsignedWithZeroKeyHashTraitsIyEENS_10HashTraitsIS3_EEEESB_E3addINS_17HashMapTranslatorISE_S8_EEyS3_EENS_18HashTableAddResultINS_17HashTableIteratorIyS4_S6_S8_SE_SB_EEEERKT0_RKT1_
__ZN3WTF9HashTableIyNS_12KeyValuePairIyN3JSC16SparseArrayEntryEEENS_24KeyValuePairKeyExtractorIS4_EENS_7IntHashIyEENS_18HashMapValueTraitsINS_29UnsignedWithZeroKeyHashTraitsIyEENS_10HashTraitsIS3_EEEESB_E6rehashEi
__ZN3JSC16SparseArrayEntry3putEPNS_9ExecStateENS_7JSValueEPNS_19SparseArrayValueMapES3_b
__ZN3JSC19SparseArrayValueMap4findEj
__ZNK3JSC16SparseArrayEntry3getERNS_12PropertySlotE
__ZN3JSC19SparseArrayValueMap7destroyEPNS_6JSCellE
__ZN3JSC9CodeCacheD1Ev
__ZN3JSC9CodeCacheD2Ev
__ZN3JSC21UnlinkedEvalCodeBlock7destroyEPNS_6JSCellE
__ZN3JSC19FunctionConstructor11getCallDataEPNS_6JSCellERNS_8CallDataE
__ZN3JSCL23callFunctionConstructorEPNS_9ExecStateE
__ZN3JSC4Yarr12ByteCompiler21assertionWordBoundaryEbj
__ZN3JSC4Yarr11InterpreterIhE26matchAssertionWordBoundaryERNS0_8ByteTermE
__ZN3JSC4Yarr11InterpreterIhE22backtrackBackReferenceERNS0_8ByteTermEPNS2_18DisjunctionContextE
__ZN3WTF6VectorIiLm8ENS_15CrashOnOverflowEE15reserveCapacityEm
__ZN3JSCL35objectProtoFuncPropertyIsEnumerableEPNS_9ExecStateE
__ZNK3JSC8JSObject20propertyIsEnumerableEPNS_9ExecStateERKNS_10IdentifierE
__ZN3JSC8JSObject24getOwnPropertyDescriptorEPS0_PNS_9ExecStateENS_12PropertyNameERNS_18PropertyDescriptorE
__ZN3JSC18PropertyDescriptor13setDescriptorENS_7JSValueEj
__ZNK3JSC18PropertyDescriptor10enumerableEv
__ZN3JSC10JSFunction24getOwnPropertyDescriptorEPNS_8JSObjectEPNS_9ExecStateENS_12PropertyNameERNS_18PropertyDescriptorE
__ZN3JSC4Yarr15BytecodePatternD2Ev
__ZN3JSC10LocalStackINS_8JSObjectELj16EE4pushEPS1_
_operationTypeOf
__ZN3JSC14MacroAssembler5and32ENS_22AbstractMacroAssemblerINS_12X86AssemblerEE5Imm32ENS_12X86Registers10RegisterIDES6_
__ZN3JSC3DFG14SpeculativeJIT19compileValueToInt32EPNS0_4NodeE
__ZN3JSC3DFG14SpeculativeJIT13integerResultENS_12X86Registers10RegisterIDEPNS0_4NodeENS_10DataFormatENS1_15UseChildrenModeE
__ZN3JSCL21dateProtoFuncToStringEPNS_9ExecStateE
__ZN3JSCL23returnToThrowTrampolineEPNS_2VMENS_16ReturnAddressPtrERS2_
_cti_op_push_name_scope
_cti_op_pop_scope
__ZN3JSC17NumberConstructor16getConstructDataEPNS_6JSCellERNS_13ConstructDataE
__ZN3JSCL30constructWithNumberConstructorEPNS_9ExecStateE
__ZN3JSC12NumberObjectC1ERNS_2VMEPNS_9StructureE
__ZN3JSCL22numberProtoFuncValueOfEPNS_9ExecStateE
__ZN3JSC3DFGL21emitPutTransitionStubEPNS_9ExecStateENS_7JSValueERKNS_10IdentifierERKNS_15PutPropertySlotERNS_17StructureStubInfoENS_7PutKindEPNS_9StructureESE_PNS_14StructureChainENS_17CodeLocationLabelERN3WTF6RefPtrINS_14JITStubRoutineEEE
__ZN3JSC3DFG24ScratchRegisterAllocator15allocateScratchINS0_7GPRInfoEEENT_12RegisterTypeEv
__ZN3JSC3DFG24ScratchRegisterAllocator32preserveReusedRegistersByPushingERNS_14MacroAssemblerE
__ZN3JSC3DFG24ScratchRegisterAllocator31restoreReusedRegistersByPoppingERNS_14MacroAssemblerE
__ZN3JSC3DFG24ScratchRegisterAllocator36preserveUsedRegistersToScratchBufferERNS_14MacroAssemblerEPNS_13ScratchBufferENS_12X86Registers10RegisterIDE
__ZN3JSC3DFG12CCallHelpers16setupTwoStubArgsILNS_12X86Registers10RegisterIDE6ELS4_8EEEvS4_S4_
__ZN3JSC3DFG24ScratchRegisterAllocator37restoreUsedRegistersFromScratchBufferERNS_14MacroAssemblerEPNS_13ScratchBufferENS_12X86Registers10RegisterIDE
__ZN3JSCL24dateProtoFuncGetFullYearEPNS_9ExecStateE
__ZN3JSCL24dateProtoFuncSetFullYearEPNS_9ExecStateE
__ZN3JSCL23setNewValueFromDateArgsEPNS_9ExecStateEib
__ZN3JSC9CodeBlock26findClosureCallForReturnPCENS_16ReturnAddressPtrE
_operationPutByIdDirectNonStrictOptimize
_operationPutByIdDirectNonStrictOptimizeWithReturnAddress
_operationPutByIdDirectNonStrict
__ZN3WTF6VectorIN3JSC13PutByIdAccessELm2ENS_15CrashOnOverflowEE15reserveCapacityEm
__ZN3JSC3DFG15dfgResetPutByIDERNS_13RepatchBufferERNS_17StructureStubInfoE
__ZN3JSCL18arrayProtoFuncSomeEPNS_9ExecStateE
__ZN3JSC7JSArray14deletePropertyEPNS_6JSCellEPNS_9ExecStateENS_12PropertyNameE
__ZN3WTF9HashTableIPN3JSC20MarkedArgumentBufferES3_NS_17IdentityExtractorENS_7PtrHashIS3_EENS_10HashTraitsIS3_EES8_E16lookupForWritingINS_22IdentityHashTranslatorIS6_EES3_EENSt3__14pairIPS3_bEERKT0_
__ZN3WTF15ThreadConditionD1Ev
__ZN3WTF10StringImpl18simplifyWhiteSpaceEv
__ZN3WTF10StringImpl32simplifyMatchedCharactersToSpaceItNS_23SpaceOrNewlinePredicateEEENS_10PassRefPtrIS0_EET0_
__ZN3WTF21charactersToIntStrictEPKtmPbi
_cti_op_bitxor
__ZN3JSC7JSArray17compactForSortingILh29EEEvRjS2_
__ZN3JSC7JSArray19sortCompactedVectorILh29ENS_12WriteBarrierINS_7UnknownEEEEEvPNS_9ExecStateENS_14ContiguousDataIT0_EEj
__ZN3JSC3DFG14SpeculativeJIT21compileToStringOnCellEPNS0_4NodeE
__ZN3JSCL22numberProtoFuncToFixedEPNS_9ExecStateE
__ZN3JSC15constructNumberEPNS_9ExecStateEPNS_14JSGlobalObjectENS_7JSValueE
__ZN3JSCL16mathProtoFuncCosEPNS_9ExecStateE
__ZN3WTF17double_conversion6Bignum16MultiplyByUInt64Ey
__ZN3WTF17double_conversion6Bignum12AssignUInt16Et
__ZN3WTF17double_conversionL12BignumStrtodENS0_15BufferReferenceIKcEEid
__ZN3WTF17double_conversion6Bignum19AssignDecimalStringENS0_15BufferReferenceIKcEE
__ZN3WTF17double_conversion6Bignum20MultiplyByPowerOfTenEi
__ZN3WTF17double_conversion6Bignum9AddBignumERKS1_
__ZN3JSC3DFGL8putByValILb0EEEvPNS_9ExecStateENS_7JSValueEjS4_
__ZN3JSC9CodeBlock19codeOriginForReturnENS_16ReturnAddressPtrERNS_10CodeOriginE
__ZN3JSC3DFG14ByteCodeParser11makeDivSafeEPNS0_4NodeE
__ZN3JSC3DFG25BackwardsPropagationPhase18isWithinPowerOfTwoILi22EEEbPNS0_4NodeE
__ZN3JSC3DFG14SpeculativeJIT15compileArithMulEPNS0_4NodeE
__ZN3JSC3DFG12FPRTemporaryC2EPNS0_14SpeculativeJITERNS0_22SpeculateDoubleOperandES5_
__ZN3JSC3DFG14SpeculativeJIT18compileArithNegateEPNS0_4NodeE
__ZN3JSC23MacroAssemblerX86Common12negateDoubleENS_12X86Registers13XMMRegisterIDES2_
__ZN3JSC23MacroAssemblerX86Common9divDoubleENS_12X86Registers13XMMRegisterIDES2_S2_
_cti_op_inc
__ZN3JSC12StringObject19getOwnPropertyNamesEPNS_8JSObjectEPNS_9ExecStateERNS_17PropertyNameArrayENS_15EnumerationModeE
__ZN3JSC14globalFuncEvalEPNS_9ExecStateE
__ZN3JSC8JSObject18createArrayStorageERNS_2VMEjj
_operationConvertThis
_cti_op_sub
__ZN3JSC23createNotAFunctionErrorEPNS_9ExecStateENS_7JSValueE
__ZN3JSC5LLInt11callToThrowEPNS_9ExecStateEPNS_11InstructionE
__ZN3JSC7JSProxy25getOwnPropertySlotByIndexEPNS_6JSCellEPNS_9ExecStateEjRNS_12PropertySlotE
__ZN3JSC17StringConstructor16getConstructDataEPNS_6JSCellERNS_13ConstructDataE
__ZN3JSCL30constructWithStringConstructorEPNS_9ExecStateE
__ZN3JSC4Yarr11InterpreterIhE30backtrackPatternCasedCharacterERNS0_8ByteTermEPNS2_18DisjunctionContextE
__ZN3JSCL15performSlowSortEPNS_9ExecStateEPNS_8JSObjectEjNS_7JSValueERNS_8CallDataERNS_8CallTypeE
__ZN3JSC9getOrHoleEPNS_8JSObjectEPNS_9ExecStateEj
__ZN3WTF10StringImpl32simplifyMatchedCharactersToSpaceItNS_14UCharPredicateEEENS_10PassRefPtrIS0_EET0_
__ZN3JSC25DemandExecutableAllocatorC2Ev
__ZN3WTF9HashTableIPN3JSC25DemandExecutableAllocatorES3_NS_17IdentityExtractorENS_7PtrHashIS3_EENS_10HashTraitsIS3_EES8_E3addIN
__ZN3WTF9HashTableIPN3JSC25DemandExecutableAllocatorES3_NS_17IdentityExtractorENS_7PtrHashIS3_EENS_10HashTraitsIS3_EES8_E6rehas
__ZN3JSC12CodeCacheMap13pruneSlowCaseEv
__ZN3JSC19SparseArrayValueMap13visitChildrenEPNS_6JSCellERNS_11SlotVisitorE
__ZN3JSC4Yarr11InterpreterIhE22parenthesesDoBacktrackERNS0_8ByteTermEPNS2_24BackTrackInfoParenthesesE
__ZN3WTF6String6numberEm
__ZNK3JSC8JSObject18getPrimitiveNumberEPNS_9ExecStateERdRNS_7JSValueE
__ZN3JSC18BooleanConstructor16getConstructDataEPNS_6JSCellERNS_13ConstructDataE
__ZN3JSCL31constructWithBooleanConstructorEPNS_9ExecStateE
__ZN3JSC16constructBooleanEPNS_9ExecStateERKNS_7ArgListE
__ZN3JSCL31dateProtoFuncGetUTCMillisecondsEPNS_9ExecStateE
__ZN3JSC6ParserINS_5LexerItEEE8getLabelEPKNS_10IdentifierE
__ZN3JSC3DFG14SpeculativeJIT15compileArithModEPNS0_4NodeE
__ZN3JSC3DFG14SpeculativeJIT17compileSoftModuloEPNS0_4NodeE
__ZN3JSC3DFG14SpeculativeJIT19compileFromCharCodeEPNS0_4NodeE
__ZN3JSC3DFG12slowPathCallINS_22AbstractMacroAssemblerINS_12X86AssemblerEE8JumpListEPFPNS_6JSCellEPNS_9ExecStateEiENS_12X86Registers10RegisterIDESD_EEN3WTF10PassOwnPtrINS0_17SlowPathGeneratorEEET_PNS0_14SpeculativeJITET0_T1_T2_NS0_18SpillRegistersModeE
__ZN3JSC3DFG41CallResultAndOneArgumentSlowPathGeneratorINS_22AbstractMacroAssemblerINS_12X86AssemblerEE8JumpListEPFPNS_6JSCellEPNS_9ExecStateEPNS_9StructureEENS_12X86Registers10RegisterIDESB_E16generateInternalEPNS0_14SpeculativeJITE
__ZN3JSC3DFG41CallResultAndOneArgumentSlowPathGeneratorINS_22AbstractMacroAssemblerINS_12X86AssemblerEE8JumpListEPFPNS_6JSCellEPNS_9ExecStateEPNS_9StructureEENS_12X86Registers10RegisterIDESB_EC2ES5_PNS0_14SpeculativeJITESD_NS0_18SpillRegistersModeESF_SB_
__ZN3JSC3DFG41CallResultAndOneArgumentSlowPathGeneratorINS_22AbstractMacroAssemblerINS_12X86AssemblerEE8JumpListEPFPNS_6JSCellEPNS_9ExecStateEPNS_9StructureEENS_12X86Registers10RegisterIDESB_ED0Ev
__ZN3JSC3DFG41CallResultAndOneArgumentSlowPathGeneratorINS_22AbstractMacroAssemblerINS_12X86AssemblerEE8JumpListEPFPNS_6JSCellEPNS_9ExecStateEPNS_9StructureEENS_12X86Registers10RegisterIDESB_ED1Ev
__ZN3JSC3DFG41CallResultAndOneArgumentSlowPathGeneratorINS_22AbstractMacroAssemblerINS_12X86AssemblerEE8JumpListEPFPNS_6JSCellEPNS_9ExecStateEiENS_12X86Registers10RegisterIDESD_E16generateInternalEPNS0_14SpeculativeJITE
__ZN3JSC3DFG41CallResultAndOneArgumentSlowPathGeneratorINS_22AbstractMacroAssemblerINS_12X86AssemblerEE8JumpListEPFPNS_6JSCellEPNS_9ExecStateEiENS_12X86Registers10RegisterIDESD_EC2ES5_PNS0_14SpeculativeJITESB_NS0_18SpillRegistersModeESD_SD_
__ZN3JSC3DFG41CallResultAndOneArgumentSlowPathGeneratorINS_22AbstractMacroAssemblerINS_12X86AssemblerEE8JumpListEPFPNS_6JSCellEPNS_9ExecStateEiENS_12X86Registers10RegisterIDESD_ED0Ev
__ZN3JSC3DFG41CallResultAndOneArgumentSlowPathGeneratorINS_22AbstractMacroAssemblerINS_12X86AssemblerEE8JumpListEPFPNS_6JSCellEPNS_9ExecStateEiENS_12X86Registers10RegisterIDESD_ED1Ev
__ZN3JSC3DFG21CallSlowPathGeneratorINS_22AbstractMacroAssemblerINS_12X86AssemblerEE8JumpListEPFPNS_6JSCellEPNS_9ExecStateEiENS_12X86Registers10RegisterIDEEC2ES5_PNS0_14SpeculativeJITESB_NS0_18SpillRegistersModeESD_
__ZN3JSC3DFG21CallSlowPathGeneratorINS_22AbstractMacroAssemblerINS_12X86AssemblerEE8JumpListEPFPNS_6JSCellEPNS_9ExecStateEiENS_12X86Registers10RegisterIDEED0Ev
__ZN3JSC3DFG21CallSlowPathGeneratorINS_22AbstractMacroAssemblerINS_12X86AssemblerEE8JumpListEPFPNS_6JSCellEPNS_9ExecStateEiENS_12X86Registers10RegisterIDEED1Ev
__ZN3JSC3DFG14SpeculativeJIT13callOperationEPFPNS_6JSCellEPNS_9ExecStateEiENS_12X86Registers10RegisterIDES9_
__ZN3JSCL26regExpConstructorLastMatchEPNS_9ExecStateENS_7JSValueENS_12PropertyNameE
__ZN3JSC9Arguments10putByIndexEPNS_6JSCellEPNS_9ExecStateEjNS_7JSValueEb
__ZN3JSC15WeakHandleOwner8finalizeENS_6HandleINS_7UnknownEEEPv
__ZN3JSC16parseIntOverflowEPKhii
__ZN3JSC7JSProxy14deletePropertyEPNS_6JSCellEPNS_9ExecStateENS_12PropertyNameE
__ZN3JSC19JSSymbolTableObject14deletePropertyEPNS_6JSCellEPNS_9ExecStateENS_12PropertyNameE
__ZN3JSC9ExecState17globalObjectTableEPS0_
__ZN3JSC19globalFuncEncodeURIEPNS_9ExecStateE
__ZN3JSCL19jsStrDecimalLiteralItEEdRPKT_S3_
__ZN3JSC17ObjectConstructor16getConstructDataEPNS_6JSCellERNS_13ConstructDataE
__ZN3JSCL30constructWithObjectConstructorEPNS_9ExecStateE
__ZN3JSCL28dateProtoFuncGetMilliSecondsEPNS_9ExecStateE
__ZN3WTF9BitVector13OutOfLineBits7destroyEPS1_
__ZN3JSCL25stringProtoFuncCharCodeAtEPNS_9ExecStateE
__ZN3WTF24codePointCompareLessThanERKNS_6StringES2_
_cti_op_throw
__ZN3JSCL24regExpConstructorDollar4EPNS_9ExecStateENS_7JSValueENS_12PropertyNameE
__ZN3JSCL20arrayProtoFuncReduceEPNS_9ExecStateE
_cti_op_get_by_id_string_fail
_cti_op_lshift
__ZN3JSC3DFG14SpeculativeJIT20compileGetCharCodeAtEPNS0_4NodeE
__ZN3JSC3DFG12slowPathCallINS_22AbstractMacroAssemblerINS_12X86AssemblerEE4JumpEPFidENS_12X86Registers10RegisterIDENS8_13XMMRegisterIDEEEN3WTF10PassOwnPtrINS0_17SlowPathGeneratorEEET_PNS0_14SpeculativeJITET0_T1_T2_NS0_18SpillRegistersModeE
__ZN3JSC3DFG14SpeculativeJIT7shiftOpENS0_8NodeTypeENS_12X86Registers10RegisterIDEiS4_
__ZN3JSC3DFG14SpeculativeJIT13callOperationEPFidENS_12X86Registers10RegisterIDENS4_13XMMRegisterIDE
__ZN3WTF9HashTableIN3JSC13SourceCodeKeyENS_12KeyValuePairIS2_NS1_15SourceCodeValueEEENS_24KeyValuePairKeyExtractorIS5_EENS1_17SourceCodeKeyHashENS_18HashMapValueTraitsINS1_23SourceCodeKeyHashTraitsENS_10HashTraitsIS4_EEEESA_E12deleteBucketERS5_
__ZN3WTF9HashTableIN3JSC13SourceCodeKeyENS_12KeyValuePairIS2_NS1_15SourceCodeValueEEENS_24KeyValuePairKeyExtractorIS5_EENS1_17SourceCodeKeyHashENS_18HashMapValueTraitsINS1_23SourceCodeKeyHashTraitsENS_10HashTraitsIS4_EEEESA_E3addINS_17HashMapTranslatorISD_S8_EES2_S4_EENS_18HashTableAddResultINS_17HashTableIteratorIS2_S5_S7_S8_SD_SA_EEEERKT0_RKT1_
__ZN3WTF9HashTableIN3JSC13SourceCodeKeyENS_12KeyValuePairIS2_NS1_15SourceCodeValueEEENS_24KeyValuePairKeyExtractorIS5_EENS1_17SourceCodeKeyHashENS_18HashMapValueTraitsINS1_23SourceCodeKeyHashTraitsENS_10HashTraitsIS4_EEEESA_E6rehashEi
__ZN3JSCL24dateProtoFuncToISOStringEPNS_9ExecStateE
__ZN3JSCL31objectConstructorDefinePropertyEPNS_9ExecStateE
__ZN3JSCL20toPropertyDescriptorEPNS_9ExecStateENS_7JSValueERNS_18PropertyDescriptorE
__ZNK3JSC18PropertyDescriptor20isAccessorDescriptorEv
__ZN3JSC8JSObject17defineOwnPropertyEPS0_PNS_9ExecStateENS_12PropertyNameERNS_18PropertyDescriptorEb
__ZN3JSC8JSObject25defineOwnNonIndexPropertyEPNS_9ExecStateENS_12PropertyNameERNS_18PropertyDescriptorEb
__ZN3JSCL13putDescriptorEPNS_9ExecStateEPNS_8JSObjectENS_12PropertyNameERNS_18PropertyDescriptorEjRKS5_
__ZNK3JSC18PropertyDescriptor19isGenericDescriptorEv
__ZN3JSCL23objectConstructorFreezeEPNS_9ExecStateE
__ZNK3JSC11Interpreter27retrieveArgumentsFromVMCodeEPNS_9ExecStateEPNS_10JSFunctionE
__ZNK3JSC18PropertyDescriptor16isDataDescriptorEv
__ZN3JSC18PropertyDescriptor11setWritableEb
__ZN3JSC18PropertyDescriptor15setConfigurableEb
__ZN3JSC10JSFunction17defineOwnPropertyEPNS_8JSObjectEPNS_9ExecStateENS_12PropertyNameERNS_18PropertyDescriptorEb
__ZN3JSC9sameValueEPNS_9ExecStateENS_7JSValueES2_
__ZNK3JSC18PropertyDescriptor12configurableEv
__ZNK3JSC18PropertyDescriptor8writableEv
__ZNK3JSC11Interpreter24retrieveCallerFromVMCodeEPNS_9ExecStateEPNS_10JSFunctionE
__ZNK3JSC18PropertyDescriptor7equalToEPNS_9ExecStateERKS0_
__ZNK3JSC18PropertyDescriptor15attributesEqualERKS0_
__ZNK3JSC18PropertyDescriptor27attributesOverridingCurrentERKS0_
__ZN3JSC8JSObject17preventExtensionsERNS_2VME
__ZN3JSC8JSObject56enterDictionaryIndexingModeWhenArrayStorageAlreadyExistsERNS_2VMEPNS_12ArrayStorageE
__ZN3JSC9Butterfly11resizeArrayERNS_2VMEPNS_9StructureEmm
__ZN3JSC9Structure27preventExtensionsTransitionERNS_2VMEPS0_
__ZN3JSCL27dateProtoFuncGetUTCFullYearEPNS_9ExecStateE
__ZN3JSCL24dateProtoFuncGetUTCMonthEPNS_9ExecStateE
__ZN3JSCL23dateProtoFuncGetUTCDateEPNS_9ExecStateE
__ZN3JSCL24dateProtoFuncGetUTCHoursEPNS_9ExecStateE
__ZN3JSCL26dateProtoFuncGetUTCMinutesEPNS_9ExecStateE
__ZN3JSCL26dateProtoFuncGetUTCSecondsEPNS_9ExecStateE
__ZN3JSC3DFG14SpeculativeJIT36compileObjectToObjectOrOtherEqualityENS0_4EdgeES2_
__ZN3JSCL20dateProtoFuncSetDateEPNS_9ExecStateE
_cti_to_object
__ZN3JSC9ExecState21booleanPrototypeTableEPS0_
_cti_op_put_by_id_direct_fail
__ZN3JSC11createErrorEPNS_9ExecStateERKN3WTF6StringE
__ZN3JSC13LiteralParserIhE15getErrorMessageEv
__ZN3JSC17createSyntaxErrorEPNS_9ExecStateERKN3WTF6StringE
__ZN3JSC18Uint16WithFractionC2Edt
__ZN3JSC18Uint16WithFraction17sumGreaterThanOneERKS0_
__ZN3JSC18Uint16WithFractionmLEt
__ZN3JSC10BigIntegerC2Ed
_cti_op_jlesseq
__ZN3JSCL21stringProtoFuncConcatEPNS_9ExecStateE
__ZN3JSCL24booleanProtoFuncToStringEPNS_9ExecStateE
__ZN3JSCL22functionProtoFuncApplyEPNS_9ExecStateE
__ZN3JSC7JSArray11fillArgListEPNS_9ExecStateERNS_20MarkedArgumentBufferE
__ZN3JSC9Arguments11fillArgListEPNS_9ExecStateERNS_20MarkedArgumentBufferE
__ZNK3WTF17double_conversion23DoubleToStringConverter19HandleSpecialValuesEdPNS0_13StringBuilderE
__ZN3JSC6ParserINS_5LexerIhEEE18parseWithStatementINS_10ASTBuilderEEENT_9StatementERS6_
__ZN3JSC8WithNode12emitBytecodeERNS_17BytecodeGeneratorEPNS_10RegisterIDE
__ZN3JSC17BytecodeGenerator17emitPushWithScopeEPNS_10RegisterIDE
_operationEnsureArrayStorage
_cti_op_bitor
__ZNK3WTF6String12toUIntStrictEPbi
__ZN3WTF10StringImpl7replaceEPS0_S1_
__ZN3JSC15JSStringBuilder9upConvertEv
__ZN3WTF6VectorItLm64ENS_20UnsafeVectorOverflowEE9tryAppendItEEbPKT_m
__ZN3WTF6VectorItLm64ENS_20UnsafeVectorOverflowEE14shrinkCapacityEm
__ZN3JSCL16definePropertiesEPNS_9ExecStateEPNS_8JSObjectES3_
__ZN3WTF6VectorIjLm32ENS_15CrashOnOverflowEE15reserveCapacityEm
__ZN3WTF6VectorIjLm16ENS_15CrashOnOverflowEE15reserveCapacityEm
__ZN3WTF6VectorIN3JSC3DFG19CPSRethreadingPhase13PhiStackEntryELm128ENS_15CrashOnOverflowEE15reserveCapacityEm
__ZN3JSC4Yarr12ByteCompiler12uncheckInputEj
__ZN3JSC4Yarr11InterpreterItE25backtrackPatternCharacterERNS0_8ByteTermEPNS2_18DisjunctionContextE
__ZN3JSC4Yarr11InterpreterItE30backtrackPatternCasedCharacterERNS0_8ByteTermEPNS2_18DisjunctionContextE
_operationValueAddNotNumber
__ZN3JSC11JSNameScope13visitChildrenEPNS_6JSCellERNS_11SlotVisitorE
__ZN3JSC3DFG14SpeculativeJIT25compileNewFunctionNoCheckEPNS0_4NodeE
_operationNewFunctionNoCheck
_operationToPrimitive
__ZN3JSC6JSLock12DropAllLocksC1EPNS_2VME
__ZN3JSC6JSLock12DropAllLocksC2EPNS_2VME
__ZNK3WTF17double_conversion23DoubleToStringConverter31CreateExponentialRepresentationEPKciiPNS0_13StringBuilderE
__ZN3WTFeqERKNS_7CStringEPKc
__ZN3JSC12StringObject25getOwnPropertySlotByIndexEPNS_6JSCellEPNS_9ExecStateEjRNS_12PropertySlotE
__ZN3JSC3JIT15emit_op_urshiftEPNS_11InstructionE
__ZN3JSC3JIT19emitSlow_op_urshiftEPNS_11InstructionERPNS_13SlowCaseEntryE
_operationPutByValStrict
__ZN3JSCL7dateUTCEPNS_9ExecStateE
_operationReallocateStorageAndFinishPut
__ZN3JSCL26stringFromCharCodeSlowCaseEPNS_9ExecStateE
__ZN3JSCL22compareNumbersForQSortEPKvS1_
__ZN3JSC3DFG14SpeculativeJIT13callOperationEPFPcPNS_9ExecStateEPNS_8JSObjectEmENS_12X86Registers10RegisterIDESA_m
__ZN3JSC14MacroAssembler5xor32ENS_22AbstractMacroAssemblerINS_12X86AssemblerEE5Imm32ENS_12X86Registers10RegisterIDES6_
__ZN3JSC14MacroAssembler4or32ENS_22AbstractMacroAssemblerINS_12X86AssemblerEE5Imm32ENS_12X86Registers10RegisterIDES6_
__ZN3JSC3DFG10FixupPhase29canOptimizeStringObjectAccessERKNS_10CodeOriginE
__ZNK3JSC3DFG11ExitProfile11hasExitSiteERKNS0_16FrequentExitSiteE
__ZN3JSC3DFG14SpeculativeJIT33speculateStringObjectForStructureINS_12X86Registers10RegisterIDEEEvNS0_4EdgeET_
__ZN3WTF6VectorIN3JSC3DFG22SilentRegisterSavePlanELm0ENS_15CrashOnOverflowEE15reserveCapacityEm
__ZN3JSC3DFG14SpeculativeJIT13callOperationEPFPcPNS_9ExecStateEPNS_9StructureEENS_12X86Registers10RegisterIDES6_
_operationNewEmptyArray
__ZN3JSC12JSRopeString16getIndexSlowCaseEPNS_9ExecStateEj
__ZNK3JSC16SparseArrayEntry16getNonSparseModeEv
__ZN3JSC18FunctionExecutable33jettisonOptimizedCodeForConstructERNS_2VME
_operationCompareGreater
_operationResolveRope
_cti_op_negate
__ZN3WTF10StringImpl7replaceEjjPS0_
__ZN3JSC6JSCell16getConstructDataEPS0_RNS_13ConstructDataE
__ZN3JSC13LiteralParserItE15getErrorMessageEv
_cti_op_div
__ZN3JSCL16mathProtoFuncSinEPNS_9ExecStateE
__ZN3WTF6VectorIN3JSC5ScopeELm10ENS_15CrashOnOverflowEE14appendSlowCaseIS2_EEvRKT_
__ZN3WTF6VectorIN3JSC5ScopeELm10ENS_15CrashOnOverflowEE15reserveCapacityEm
__ZN3WTF12base64DecodeERKNS_6StringERNS_6VectorIcLm0ENS_15CrashOnOverflowEEENS_18Base64DecodePolicyE
__ZN3WTF6VectorIcLm0ENS_15CrashOnOverflowEE14expandCapacityEm
__ZN3JSC10JSFunction12callerGetterEPNS_9ExecStateENS_7JSValueENS_12PropertyNameE
_cti_op_urshift
_cti_op_rshift
__ZN3WTF6VectorIN3JSC7JSValueELm8ENS_15CrashOnOverflowEE15reserveCapacityEm
__ZN3WTF6VectorIN3JSC3DFG13AbstractValueELm8ENS_15CrashOnOverflowEE15reserveCapacityEm
__ZN3JSC9CodeBlock27shouldReoptimizeFromLoopNowEv
__ZN3JSC23MacroAssemblerX86Common9subDoubleENS_12X86Registers13XMMRegisterIDES2_S2_
__ZN3JSC3DFG14SpeculativeJIT7shiftOpENS0_8NodeTypeENS_12X86Registers10RegisterIDES4_S4_
__ZN3JSC3DFG14SpeculativeJIT21compileUInt32ToNumberEPNS0_4NodeE
__ZN3JSC3DFG14SpeculativeJIT11fillIntegerENS0_4EdgeERNS_10DataFormatE
__ZN3JSC13JSNotAnObject25getOwnPropertySlotByIndexEPNS_6JSCellEPNS_9ExecStateEjRNS_12PropertySlotE
__ZN3WTF6VectorIN3JSC3DFG11ValueSourceELm8ENS_15CrashOnOverflowEE15reserveCapacityEm
__ZN3WTF6VectorIN3JSC13ValueRecoveryELm8ENS_15CrashOnOverflowEE15reserveCapacityEm
__ZN3WTF6String6insertERKS0_j
__ZN3WTF6String6insertEPKtjj
_JSWeakObjectMapRemove
__ZN3WTF9HashTableIPNS_10StringImplES2_NS_17IdentityExtractorENS_10StringHashENS_10HashTraitsIS2_EES6_E16lookupForWritingINS_22IdentityHashTranslatorIS4_EES2_EENSt3__14pairIPS2_bEERKT0_
_operationCompareLessEq
__ZN3WTF12base64EncodeEPKcjNS_18Base64EncodePolicyE
__ZN3WTF12base64EncodeEPKcjRNS_6VectorIcLm0ENS_15CrashOnOverflowEEENS_18Base64EncodePolicyE
+[JSContext(Internal) contextWithJSGlobalContextRef:]
+[JSVirtualMachine(Internal) virtualMachineWithContextGroupRef:]
+[JSVMWrapperCache wrapperForJSContextGroupRef:]
-[JSVirtualMachine initWithContextGroupRef:]
_JSContextGroupRetain
+[JSVMWrapperCache addWrapper:forJSContextGroupRef:]
-[JSVirtualMachine(Internal) contextForGlobalContextRef:]
-[JSContext .cxx_construct]
-[JSContext(Internal) initWithGlobalContextRef:]
-[JSWrapperMap .cxx_construct]
-[JSWrapperMap initWithContext:]
-[JSContext setExceptionHandler:]
-[JSVirtualMachine(Internal) addContext:forGlobalContextRef:]
+[JSValue(Internal) valueWithJSValueRef:inContext:]
-[JSContext(Internal) wrapperForJSObject:]
-[JSWrapperMap objcWrapperForJSValueRef:]
-[JSValue(Internal) initWithValue:inContext:]
-[JSContext JSGlobalContextRef]
-[JSValue(Internal) dealloc]
-[JSContext dealloc]
-[JSWrapperMap dealloc]
-[JSWrapperMap .cxx_destruct]
-[JSContext exceptionHandler]
-[JSContext .cxx_destruct]
-[JSVirtualMachine dealloc]
_JSContextGroupRelease
__ZNK3WTF6String19characterStartingAtEj
__ZN3WTF10StringImpl19characterStartingAtEj
__ZN3JSC7JSScope30resolveContainingScopeInternalILNS0_10LookupModeE1ELNS0_12ReturnValuesE3EEEPNS_8JSObjectEPNS_9ExecStateERKNS_10IdentifierERNS_12PropertySlotEPN3WTF6VectorINS_16ResolveOperationELm0ENSD_15CrashOnOverflowEEEPNS_18PutToBaseOperationEb
__ZN3JSC3JIT23emit_op_push_with_scopeEPNS_11InstructionE
_cti_op_push_with_scope
__ZN3JSC3DFG14SpeculativeJIT13callOperationEPFPcPNS_9ExecStateEPNS_8JSObjectEENS_12X86Registers10RegisterIDESA_
_operationReallocateButterflyToHavePropertyStorageWithInitialCapacity
_operationAllocatePropertyStorageWithInitialCapacity
__ZN3JSC6JSCell3putEPS0_PNS_9ExecStateENS_12PropertyNameENS_7JSValueERNS_15PutPropertySlotE
__ZN3JSCL24stringProtoFuncTrimRightEPNS_9ExecStateE
-[JSValue JSValueRef]
-[JSValue toString]
__Z19tryUnwrapObjcObjectP15OpaqueJSContextPK13OpaqueJSValue
__ZN3WTF10StringImpl7replaceEtPS0_
__ZN3WTF10StringImpl7replaceEtPKhj
__ZN3JSC17FunctionPrototype11getCallDataEPNS_6JSCellERNS_8CallDataE
__ZN3JSCL21callFunctionPrototypeEPNS_9ExecStateE
__ZN3JSC21globalFuncProtoGetterEPNS_9ExecStateE
__ZN3JSC9ExecState20numberPrototypeTableEPS0_
__ZN3JSCL27objectProtoFuncLookupGetterEPNS_9ExecStateE
__ZN3JSC8JSObject21getPropertyDescriptorEPNS_9ExecStateENS_12PropertyNameERNS_18PropertyDescriptorE
__ZN3JSCL27objectProtoFuncLookupSetterEPNS_9ExecStateE
__ZN3JSC22NativeErrorConstructor16getConstructDataEPNS_6JSCellERNS_13ConstructDataE
__ZN3JSCL35constructWithNativeErrorConstructorEPNS_9ExecStateE
__ZN3JSCL28stringProtoFuncLocaleCompareEPNS_9ExecStateE
__ZN3WTF8Collator11userDefaultEv
__ZNK3WTF8Collator7collateEPKtmS2_m
__ZNK3WTF8Collator14createCollatorEv
__ZN3WTF8CollatorD1Ev
__ZN3WTF8Collator15releaseCollatorEv
__ZN3JSC3DFG28ArgumentsSimplificationPhase25observeProperArgumentsUseEPNS0_4NodeENS0_4EdgeE
__ZN3JSC3DFG12slowPathCallINS_22AbstractMacroAssemblerINS_12X86AssemblerEE8JumpListEPFxPNS_9ExecStateEiiENS_12X86Registers10RegisterIDEiSB_EEN3WTF10PassOwnPtrINS0_17SlowPathGeneratorEEET_PNS0_14SpeculativeJITET0_T1_T2_T3_NS0_18SpillRegistersModeE
__ZN3JSC3DFG21CallSlowPathGeneratorINS_22AbstractMacroAssemblerINS_12X86AssemblerEE8JumpListEPFxPNS_9ExecStateEiiENS_12X86Registers10RegisterIDEEC2ES5_PNS0_14SpeculativeJITES9_NS0_18SpillRegistersModeESB_
__ZN3JSC3DFG21CallSlowPathGeneratorINS_22AbstractMacroAssemblerINS_12X86AssemblerEE8JumpListEPFxPNS_9ExecStateEiiENS_12X86Registers10RegisterIDEED0Ev
__ZN3JSC3DFG21CallSlowPathGeneratorINS_22AbstractMacroAssemblerINS_12X86AssemblerEE8JumpListEPFxPNS_9ExecStateEiiENS_12X86Registers10RegisterIDEED1Ev
__ZN3JSC3DFG14SpeculativeJIT13callOperationEPFxPNS_9ExecStateEiiENS_12X86Registers10RegisterIDEiS7_
__ZN3JSC6ParserINS_5LexerIhEEE18updateErrorMessageEv
__ZN3JSC6ParserINS_5LexerIhEEE12getTokenNameENS_11JSTokenTypeE
__ZN3JSC17createSyntaxErrorEPNS_14JSGlobalObjectERKN3WTF6StringE
__ZN3JSCL28substituteBackreferencesSlowItEEN3WTF6StringERKS2_S4_PKiPNS_6RegExpEm
__ZN3WTF6VectorItLm0ENS_15CrashOnOverflowEE14shrinkCapacityEm
__ZN3JSC4Yarr11InterpreterItE18matchBackReferenceERNS0_8ByteTermEPNS2_18DisjunctionContextE
__ZN3JSC4Yarr11InterpreterItE22backtrackBackReferenceERNS0_8ByteTermEPNS2_18DisjunctionContextE
__ZN3JSC4Yarr11InterpreterItE23tryConsumeBackReferenceEiij
__ZN3JSCL18mathProtoFuncFloorEPNS_9ExecStateE
__ZN3WTF23waitForThreadCompletionEj
-[JSValue toBool]
__ZN3JSC3DFG12slowPathCallINS_22AbstractMacroAssemblerINS_12X86AssemblerEE8JumpListEPFvPNS_9ExecStateEPNS_8JSObjectEixENS0_11NoResultTagENS_12X86Registers10RegisterIDESE_SE_EEN3WTF10PassOwnPtrINS0_17SlowPathGeneratorEEET_PNS0_14SpeculativeJITET0_T1_T2_T3_T4_NS0_18SpillRegistersModeE
__ZN3JSC3DFG44CallResultAndThreeArgumentsSlowPathGeneratorINS_22AbstractMacroAssemblerINS_12X86AssemblerEE8JumpListEPFvPNS_9ExecStateEPNS_8JSObjectEixENS0_11NoResultTagENS_12X86Registers10RegisterIDESE_SE_E16generateInternalEPNS0_14SpeculativeJITE
__ZN3JSC3DFG44CallResultAndThreeArgumentsSlowPathGeneratorINS_22AbstractMacroAssemblerINS_12X86AssemblerEE8JumpListEPFvPNS_9ExecStateEPNS_8JSObjectEixENS0_11NoResultTagENS_12X86Registers10RegisterIDESE_SE_EC2ES5_PNS0_14SpeculativeJITESB_NS0_18SpillRegistersModeESC_SE_SE_SE_
__ZN3JSC3DFG44CallResultAndThreeArgumentsSlowPathGeneratorINS_22AbstractMacroAssemblerINS_12X86AssemblerEE8JumpListEPFvPNS_9ExecStateEPNS_8JSObjectEixENS0_11NoResultTagENS_12X86Registers10RegisterIDESE_SE_ED0Ev
__ZN3JSC3DFG44CallResultAndThreeArgumentsSlowPathGeneratorINS_22AbstractMacroAssemblerINS_12X86AssemblerEE8JumpListEPFvPNS_9ExecStateEPNS_8JSObjectEixENS0_11NoResultTagENS_12X86Registers10RegisterIDESE_SE_ED1Ev
__ZN3JSC3DFG44CallResultAndThreeArgumentsSlowPathGeneratorINS_22AbstractMacroAssemblerINS_12X86AssemblerEE8JumpListEPFvPNS_9ExecStateExPNS_6JSCellEPNS_10IdentifierEENS0_11NoResultTagENS_12X86Registers10RegisterIDESG_SB_E16generateInternalEPNS0_14SpeculativeJITE
__ZN3JSC3DFG44CallResultAndThreeArgumentsSlowPathGeneratorINS_22AbstractMacroAssemblerINS_12X86AssemblerEE8JumpListEPFvPNS_9ExecStateExPNS_6JSCellEPNS_10IdentifierEENS0_11NoResultTagENS_12X86Registers10RegisterIDESG_SB_EC2ES5_PNS0_14SpeculativeJITESD_NS0_18SpillRegistersModeESE_SG_SG_SB_
__ZN3JSC3DFG44CallResultAndThreeArgumentsSlowPathGeneratorINS_22AbstractMacroAssemblerINS_12X86AssemblerEE8JumpListEPFvPNS_9ExecStateExPNS_6JSCellEPNS_10IdentifierEENS0_11NoResultTagENS_12X86Registers10RegisterIDESG_SB_ED0Ev
__ZN3JSC3DFG44CallResultAndThreeArgumentsSlowPathGeneratorINS_22AbstractMacroAssemblerINS_12X86AssemblerEE8JumpListEPFvPNS_9ExecStateExPNS_6JSCellEPNS_10IdentifierEENS0_11NoResultTagENS_12X86Registers10RegisterIDESG_SB_ED1Ev
__ZN3JSC3DFG21CallSlowPathGeneratorINS_22AbstractMacroAssemblerINS_12X86AssemblerEE8JumpListEPFvPNS_9ExecStateEPNS_8JSObjectEixENS0_11NoResultTagEEC2ES5_PNS0_14SpeculativeJITESB_NS0_18SpillRegistersModeESC_
__ZN3JSC3DFG21CallSlowPathGeneratorINS_22AbstractMacroAssemblerINS_12X86AssemblerEE8JumpListEPFvPNS_9ExecStateEPNS_8JSObjectEixENS0_11NoResultTagEED0Ev
__ZN3JSC3DFG21CallSlowPathGeneratorINS_22AbstractMacroAssemblerINS_12X86AssemblerEE8JumpListEPFvPNS_9ExecStateEPNS_8JSObjectEixENS0_11NoResultTagEED1Ev
__ZN3JSC3DFG14SpeculativeJIT27compilePeepHoleDoubleBranchEPNS0_4NodeES3_NS_23MacroAssemblerX86Common15DoubleConditionE
__ZN3JSC16InternalFunction21calculatedDisplayNameEPNS_9ExecStateE
__ZN3JSC16InternalFunction11displayNameEPNS_9ExecStateE
_operationCompareGreaterEq
__ZN3JSCL23dateProtoFuncSetSecondsEPNS_9ExecStateE
__ZN3JSCL23setNewValueFromTimeArgsEPNS_9ExecStateEib
__ZN3JSCL28dateProtoFuncSetMilliSecondsEPNS_9ExecStateE
__ZN3JSCL23dateProtoFuncSetMinutesEPNS_9ExecStateE
__ZN3JSC3DFG14SpeculativeJIT16speculateNotCellENS0_4EdgeE
__ZN3JSC16ArrayConstructor11getCallDataEPNS_6JSCellERNS_8CallDataE
__ZN3JSCL20callArrayConstructorEPNS_9ExecStateE
__ZN3WTF5DequeINS_19FunctionWithContextELm0EE6removeEm
__ZN3JSC17BytecodeGenerator20emitLoadGlobalObjectEPNS_10RegisterIDE
__ZN3JSC4Yarr13YarrGeneratorILNS0_18YarrJITCompileModeE1EE29generatePatternCharacterFixedEm
__ZN3JSCL21dateProtoFuncSetMonthEPNS_9ExecStateE
_operationCompareLess
__ZN3JSCL23dateProtoFuncSetUTCDateEPNS_9ExecStateE
__ZN3JSC14JSGlobalObject25arrayPrototypeChainIsSaneEv
__ZN3JSC3DFG10FixupPhase13fixDoubleEdgeILNS0_7UseKindE3EEEvRNS0_4EdgeENS0_20SpeculationDirectionE
__ZN3JSC3DFG14SpeculativeJIT28compileIntegerArithDivForX86EPNS0_4NodeE
__ZN3JSC3DFG14SpeculativeJIT21compileDoublePutByValEPNS0_4NodeERNS0_20SpeculateCellOperandERNS0_27SpeculateStrictInt32OperandE
_operationRageEnsureContiguous
__ZN3JSC8JSObject24rageEnsureContiguousSlowERNS_2VME
__ZN3JSC3DFG12CCallHelpers16setupTwoStubArgsILNS_12X86Registers13XMMRegisterIDE0ELS4_1EEEvS4_S4_
__ZN3JSC3DFG14SpeculativeJIT19appendCallSetResultERKNS_11FunctionPtrENS_12X86Registers13XMMRegisterIDE
__ZN3JSC16ProgramCodeBlock14jitCompileImplEPNS_9ExecStateE
__ZN3JSC17ProgramExecutable10jitCompileEPNS_9ExecStateE
__ZN3JSC23jitCompileIfAppropriateINS_16ProgramCodeBlockEEEbPNS_9ExecStateERN3WTF6OwnPtrIT_EERNS_7JITCodeENS9_7JITTypeEjNS_20JITCompilationEffortE
__ZN3JSC16ProgramCodeBlock25canCompileWithDFGInternalEv
__ZN3JSC3DFG19mightCompileProgramEPNS_9CodeBlockE
__ZN3JSC3JIT11emit_op_endEPNS_11InstructionE
__ZN3JSC18GCThreadSharedData15didStartCopyingEv
__ZN3WTF6VectorIPN3JSC11CopiedBlockELm0ENS_15CrashOnOverflowEE14expandCapacityEm
__ZN3JSC8GCThread11copyVisitorEv
__ZN3JSC11CopiedSpace16doneFillingBlockEPNS_11CopiedBlockEPS2_
__ZN3JSC11CopyVisitor14copyFromSharedEv
__ZN3JSC8JSObject16copyBackingStoreEPNS_6JSCellERNS_11CopyVisitorE
__ZN3JSC18GCThreadSharedData16didFinishCopyingEv
__ZN3JSC9Arguments19getOwnPropertyNamesEPNS_8JSObjectEPNS_9ExecStateERNS_17PropertyNameArrayENS_15EnumerationModeE
__ZN3JSC8JSObject6freezeERNS_2VME
__ZN3JSC9Structure8isFrozenERNS_2VME
__ZN3JSC9Structure16freezeTransitionERNS_2VMEPS0_
__ZN3JSC4Yarr11InterpreterItE17matchAssertionEOLERNS0_8ByteTermE
_operationPutByIdStrictOptimize
_operationPutByIdStrictOptimizeWithReturnAddress
_operationPutByIdStrict
__ZN3JSC4Yarr6ParserINS0_22YarrPatternConstructorEtE11parseEscapeILb1ENS3_28CharacterClassParserDelegateEEEbRT0_
__ZN3JSC10JSFunction15argumentsGetterEPNS_9ExecStateENS_7JSValueENS_12PropertyNameE
__ZN3JSCL21dateProtoFuncSetHoursEPNS_9ExecStateE
__ZN3JSC11CopiedSpace20recycleBorrowedBlockEPNS_11CopiedBlockE
__ZN3JSC23MacroAssemblerX86Common19branchDoubleNonZeroENS_12X86Registers13XMMRegisterIDES2_
__ZN3JSCL25numberConstructorMinValueEPNS_9ExecStateENS_7JSValueENS_12PropertyNameE
__ZN3JSCL28numberConstructorNegInfinityEPNS_9ExecStateENS_7JSValueENS_12PropertyNameE
__ZN3JSC3DFG14SpeculativeJIT13callOperationEPFPNS_6JSCellEPNS_9ExecStateEPNS_15InlineCallFrameEENS_12X86Registers10RegisterIDES7_
__ZN3JSC3DFG14SpeculativeJIT13callOperationEPFvPNS_9ExecStateEPNS_6JSCellES5_PNS_15InlineCallFrameEENS_12X86Registers10RegisterIDESB_S7_
_operationCreateInlinedArguments
__ZN3JSC9Arguments6createERNS_2VMEPNS_9ExecStateEPNS_15InlineCallFrameE
__ZNK3JSC15InlineCallFrame18calleeForCallFrameEPNS_9ExecStateE
_operationTearOffInlinedArguments
__ZN3JSC9Arguments7tearOffEPNS_9ExecStateEPNS_15InlineCallFrameE
__ZN3JSC9Arguments25tearOffForInlineCallFrameERNS_2VMEPNS_8RegisterEPNS_15InlineCallFrameE
__ZN3JSC3DFG14SpeculativeJIT28compilePeepHoleBooleanBranchEPNS0_4NodeES3_NS_23MacroAssemblerX86Common19RelationalConditionE
_operationEnsureInt32
__ZN3JSC8JSObject15ensureInt32SlowERNS_2VME
__ZN3JSC10Identifier4fromEPNS_9ExecStateEi
__ZN3JSC17logThunkGeneratorEPNS_2VME
__ZN3JSCL16mathProtoFuncTanEPNS_9ExecStateE
_logThunk
__ZN3WTF9HashTableIN3JSC3DFG16FrequentExitSiteES3_NS_17IdentityExtractorENS2_20FrequentExitSiteHashENS_10HashTraitsIS3_EES7_E16lookupForWritingINS_22IdentityHashTranslatorIS5_EES3_EENSt3__14pairIPS3_bEERKT0_
__ZN3JSC17expThunkGeneratorEPNS_2VME
_expThunk
__ZN3JSCL17mathProtoFuncATanEPNS_9ExecStateE
_operationVirtualConstruct
__ZN3JSC13EvalCodeBlock14jitCompileImplEPNS_9ExecStateE
__ZN3JSC14EvalExecutable10jitCompileEPNS_9ExecStateE
__ZN3JSC23jitCompileIfAppropriateINS_13EvalCodeBlockEEEbPNS_9ExecStateERN3WTF6OwnPtrIT_EERNS_7JITCodeENS9_7JITTypeEjNS_20JITCompilationEffortE
__ZN3JSC13EvalCodeBlock25canCompileWithDFGInternalEv
__ZN3JSC3DFG16mightCompileEvalEPNS_9CodeBlockE
__ZN3WTF11OSAllocator18releaseDecommittedEPvm
__ZN3JSC3DFG14SpeculativeJIT44compilePeepHoleObjectToObjectOrOtherEqualityENS0_4EdgeES2_PNS0_4NodeE
__ZN3JSCL27dateProtoFuncToLocaleStringEPNS_9ExecStateE
__ZN3JSCL16formatLocaleDateEPNS_9ExecStateEPNS_12DateInstanceEdNS_20LocaleDateTimeFormatE
__ZN3WTF20equalIgnoringNullityEPNS_10StringImplES1_
__ZN3WTF6String6numberEx
__ZN3JSC4Yarr6ParserINS0_22YarrPatternConstructorEtE28CharacterClassParserDelegate25atomBuiltInCharacterClassENS0_23BuiltInCharacterClassIDEb
__ZN3JSC12RegExpObject14deletePropertyEPNS_6JSCellEPNS_9ExecStateENS_12PropertyNameE
__ZN3JSC9ExecState11regExpTableEPS0_
__ZN3JSCL25numberConstructorNaNValueEPNS_9ExecStateENS_7JSValueENS_12PropertyNameE
__ZN3JSC19SparseArrayValueMap9putDirectEPNS_9ExecStateEPNS_8JSObjectEjNS_7JSValueEjNS_18PutDirectIndexModeE
__ZN3JSC6ParserINS_5LexerItEEE21parseConstDeclarationINS_10ASTBuilderEEENT_9StatementERS6_
__ZN3JSCL27objectProtoFuncDefineGetterEPNS_9ExecStateE
__ZN3JSC18PropertyDescriptor9setGetterENS_7JSValueE
__ZN3JSC18PropertyDescriptor13setEnumerableEb
__ZNK3JSC18PropertyDescriptor12getterObjectEv
__ZN3JSCL27objectProtoFuncDefineSetterEPNS_9ExecStateE
__ZN3JSC18PropertyDescriptor9setSetterENS_7JSValueE
__ZNK3JSC18PropertyDescriptor12setterObjectEv
_operationGetArgumentsLength
_operationGetArgumentByVal
__ZN3WTF13StringBuilder12appendNumberEl
__ZN3WTF15BinarySemaphoreD1Ev
__ZN3JSC23createInvalidParamErrorEPNS_9ExecStateEPKcNS_7JSValueE
__ZN3WTF13tryMakeStringIPKcNS_6StringES2_S2_S2_EENS_10PassRefPtrINS_10StringImplEEET_T0_T1_T2_T3_
__ZN3WTF10StringImpl12toUIntStrictEPbi
__ZN3WTF18FunctionDispatcherD2Ev
__ZN3WTF8Internal25parseDoubleFromLongStringEPKtmRm
__ZN3JSCL28objectProtoFuncIsPrototypeOfEPNS_9ExecStateE
_cti_op_check_has_instance
__ZN3JSC8JSObject24defineOwnIndexedPropertyEPNS_9ExecStateEjRNS_18PropertyDescriptorEb
__ZN3JSC8JSObject54ensureArrayStorageExistsAndEnterDictionaryIndexingModeERNS_2VME
__ZN3JSC19SparseArrayValueMap3addEPNS_8JSObjectEj
__ZNK3JSC16SparseArrayEntry3getERNS_18PropertyDescriptorE
__ZN3JSC8JSObject20putIndexedDescriptorEPNS_9ExecStateEPNS_16SparseArrayEntryERNS_18PropertyDescriptorES6_
__ZN3JSC4Yarr13YarrGeneratorILNS0_18YarrJITCompileModeE0EE24generateDotStarEnclosureEm
__ZN3JSCL33objectConstructorDefinePropertiesEPNS_9ExecStateE
__ZN3JSC7JSProxy17defineOwnPropertyEPNS_8JSObjectEPNS_9ExecStateENS_12PropertyNameERNS_18PropertyDescriptorEb
__ZN3JSC14JSGlobalObject17defineOwnPropertyEPNS_8JSObjectEPNS_9ExecStateENS_12PropertyNameERNS_18PropertyDescriptorEb
__ZN3JSC14JSGlobalObject24getOwnPropertyDescriptorEPNS_8JSObjectEPNS_9ExecStateENS_12PropertyNameERNS_18PropertyDescriptorE
__ZN3JSC27getStaticFunctionDescriptorINS_25JSSegmentedVariableObjectEEEbPNS_9ExecStateEPKNS_9HashTableEPNS_8JSObjectENS_12PropertyNameERNS_18PropertyDescriptorE
__ZN3JSC14symbolTableGetINS_14JSGlobalObjectEEEbPT_NS_12PropertyNameERNS_18PropertyDescriptorE
__ZN3JSC4Yarr12ByteCompiler28atomParenthesesTerminalBeginEjbjjj
__ZN3JSC4Yarr12ByteCompiler26atomParenthesesTerminalEndEijN3WTF7CheckedIjNS2_15CrashOnOverflowEEENS0_14QuantifierTypeE
__ZN3JSC17NumberConstructor3putEPNS_6JSCellEPNS_9ExecStateENS_12PropertyNameENS_7JSValueERNS_15PutPropertySlotE
__ZN3JSC12StringObject24getOwnPropertyDescriptorEPNS_8JSObjectEPNS_9ExecStateENS_12PropertyNameERNS_18PropertyDescriptorE
__ZN3JSC8JSString27getStringPropertyDescriptorEPNS_9ExecStateENS_12PropertyNameERNS_18PropertyDescriptorE
__ZN3JSC14ArrayPrototype24getOwnPropertyDescriptorEPNS_8JSObjectEPNS_9ExecStateENS_12PropertyNameERNS_18PropertyDescriptorE
__ZN3JSC27getStaticFunctionDescriptorINS_7JSArrayEEEbPNS_9ExecStateEPKNS_9HashTableEPNS_8JSObjectENS_12PropertyNameERNS_18PropertyDescriptorE
__ZN3JSC7JSArray24getOwnPropertyDescriptorEPNS_8JSObjectEPNS_9ExecStateENS_12PropertyNameERNS_18PropertyDescriptorE
__ZN3JSC15NumberPrototype24getOwnPropertyDescriptorEPNS_8JSObjectEPNS_9ExecStateENS_12PropertyNameERNS_18PropertyDescriptorE
__ZN3JSC27getStaticFunctionDescriptorINS_12NumberObjectEEEbPNS_9ExecStateEPKNS_9HashTableEPNS_8JSObjectENS_12PropertyNameERNS_18PropertyDescriptorE
__ZN3JSC15RegExpPrototype24getOwnPropertyDescriptorEPNS_8JSObjectEPNS_9ExecStateENS_12PropertyNameERNS_18PropertyDescriptorE
__ZN3JSC27getStaticFunctionDescriptorINS_12RegExpObjectEEEbPNS_9ExecStateEPKNS_9HashTableEPNS_8JSObjectENS_12PropertyNameERNS_18PropertyDescriptorE
__ZN3JSC12RegExpObject24getOwnPropertyDescriptorEPNS_8JSObjectEPNS_9ExecStateENS_12PropertyNameERNS_18PropertyDescriptorE
__ZN3JSC24getStaticValueDescriptorINS_12RegExpObjectENS_8JSObjectEEEbPNS_9ExecStateEPKNS_9HashTableEPT_NS_12PropertyNameERNS_18PropertyDescriptorE
__ZN3JSC13DatePrototype24getOwnPropertyDescriptorEPNS_8JSObjectEPNS_9ExecStateENS_12PropertyNameERNS_18PropertyDescriptorE
__ZN3JSC27getStaticFunctionDescriptorINS_8JSObjectEEEbPNS_9ExecStateEPKNS_9HashTableEPS1_NS_12PropertyNameERNS_18PropertyDescriptorE
__ZN3JSC22ClosureCallStubRoutine27markRequiredObjectsInternalERNS_11SlotVisitorE
__ZN3WTF9BitVector7setSlowERKS0_
__ZN3JSC18RegExpMatchesArray19getOwnPropertyNamesEPNS_8JSObjectEPNS_9ExecStateERNS_17PropertyNameArrayENS_15EnumerationModeE
_JSValueGetType
__ZN3JSC13EvalCodeBlock11replacementEv
__ZN3JSC13EvalCodeBlock16compileOptimizedEPNS_9ExecStateEPNS_7JSScopeEj
__ZN3JSC14EvalExecutable16compileOptimizedEPNS_9ExecStateEPNS_7JSScopeEj
__ZN3JSC3DFG10tryCompileEPNS_9ExecStateEPNS_9CodeBlockERNS_7JITCodeEj
__ZN3JSC3DFG11JITCompiler7compileERNS_7JITCodeE
__ZN3JSC3DFG12slowPathCallINS_22AbstractMacroAssemblerINS_12X86AssemblerEE8JumpListEPFxPNS_9ExecStateEPNS_7JSArrayEENS_12X86Registers10RegisterIDESD_EEN3WTF10PassOwnPtrINS0_17SlowPathGeneratorEEET_PNS0_14SpeculativeJITET0_T1_T2_NS0_18SpillRegistersModeE
__ZN3JSC3DFG41CallResultAndOneArgumentSlowPathGeneratorINS_22AbstractMacroAssemblerINS_12X86AssemblerEE8JumpListEPFxPNS_9ExecStateEPNS_7JSArrayEENS_12X86Registers10RegisterIDESD_E16generateInternalEPNS0_14SpeculativeJITE
__ZN3JSC3DFG41CallResultAndOneArgumentSlowPathGeneratorINS_22AbstractMacroAssemblerINS_12X86AssemblerEE8JumpListEPFxPNS_9ExecStateEPNS_7JSArrayEENS_12X86Registers10RegisterIDESD_EC2ES5_PNS0_14SpeculativeJITESB_NS0_18SpillRegistersModeESD_SD_
__ZN3JSC3DFG41CallResultAndOneArgumentSlowPathGeneratorINS_22AbstractMacroAssemblerINS_12X86AssemblerEE8JumpListEPFxPNS_9ExecStateEPNS_7JSArrayEENS_12X86Registers10RegisterIDESD_ED0Ev
__ZN3JSC3DFG41CallResultAndOneArgumentSlowPathGeneratorINS_22AbstractMacroAssemblerINS_12X86AssemblerEE8JumpListEPFxPNS_9ExecStateEPNS_7JSArrayEENS_12X86Registers10RegisterIDESD_ED1Ev
__ZN3JSC3DFG21CallSlowPathGeneratorINS_22AbstractMacroAssemblerINS_12X86AssemblerEE8JumpListEPFxPNS_9ExecStateEPNS_7JSArrayEENS_12X86Registers10RegisterIDEEC2ES5_PNS0_14SpeculativeJITESB_NS0_18SpillRegistersModeESD_
__ZN3JSC3DFG21CallSlowPathGeneratorINS_22AbstractMacroAssemblerINS_12X86AssemblerEE8JumpListEPFxPNS_9ExecStateEPNS_7JSArrayEENS_12X86Registers10RegisterIDEED0Ev
__ZN3JSC3DFG21CallSlowPathGeneratorINS_22AbstractMacroAssemblerINS_12X86AssemblerEE8JumpListEPFxPNS_9ExecStateEPNS_7JSArrayEENS_12X86Registers10RegisterIDEED1Ev
+[JSValue valueWithObject:inContext:]
__Z13objectToValueP9JSContextP11objc_object
__ZL24objectToValueWithoutCopyP9JSContextP11objc_object
__Z19getJSExportProtocolv
__ZN22ObjcContainerConvertor3addENS_4TaskE
__ZN3WTF9HashTableIP11objc_objectNS_12KeyValuePairIS2_PK13OpaqueJSValueEENS_24KeyValuePairKeyExtractorIS7_EENS_7PtrHashIS2_EENS_18HashMapValueTraitsINS_10HashTraitsIS2_EENSD_IS6_EEEESE_E16lookupForWritingINS_22IdentityHashTranslatorISB_EES2_EENSt3__14pairIPS7_bEERKT0_
__ZN3WTF9HashTableIP11objc_objectNS_12KeyValuePairIS2_PK13OpaqueJSValueEENS_24KeyValuePairKeyExtractorIS7_EENS_7PtrHashIS2_EENS_18HashMapValueTraitsINS_10HashTraitsIS2_EENSD_IS6_EEEESE_E3addINS_17HashMapTranslatorISG_SB_EES2_S6_EENS_18HashTableAddResultINS_17HashTableIteratorIS2_S7_S9_SB_SG_SE_EEEERKT0_RKT1_
__ZN3WTF6VectorIN22ObjcContainerConvertor4TaskELm0ENS_15CrashOnOverflowEE15reserveCapacityEm
__ZN22ObjcContainerConvertor7convertEP11objc_object
-[JSContext exception]
-[JSContext setException:]
-[JSContext evaluateScript:]
-[JSValue callWithArguments:]
-[JSContext(SubscriptSupport) setObject:forKeyedSubscript:]
-[JSContext globalObject]
-[JSValue(SubscriptSupport) setObject:forKeyedSubscript:]
-[JSValue setValue:forProperty:]
-[JSContext(Internal) wrapperForObjCObject:]
-[JSWrapperMap jsWrapperForObject:]
-[JSWrapperMap classInfoForClass:]
-[JSObjCClassInfo .cxx_construct]
-[JSObjCClassInfo initWithContext:forClass:superClassInfo:]
-[JSObjCClassInfo allocateConstructorAndPrototypeWithSuperClassInfo:]
-[JSContext(SubscriptSupport) objectForKeyedSubscript:]
-[JSValue(SubscriptSupport) objectForKeyedSubscript:]
-[JSValue valueForProperty:]
__Z18valueInternalValueP7JSValue
__ZL11makeWrapperPK15OpaqueJSContextP13OpaqueJSClassP11objc_object
__ZN3JSC16JSCallbackObjectINS_18JSAPIWrapperObjectEE6createEPNS_9ExecStateEPNS_14JSGlobalObjectEPNS_9StructureEP13OpaqueJSClassPv
__ZN3JSC16JSCallbackObjectINS_18JSAPIWrapperObjectEEC2EPNS_9ExecStateEPNS_9StructureEP13OpaqueJSClassPv
__ZN3JSC18JSAPIWrapperObjectC2ERNS_2VMEPNS_9StructureE
__ZN3JSC18JSAPIWrapperObject14finishCreationERNS_2VME
__ZN3JSC16JSCallbackObjectINS_18JSAPIWrapperObjectEE4initEPNS_9ExecStateE
__ZN3JSC18JSAPIWrapperObject16setWrappedObjectEPv
__ZN3JSC12APIEntryShimD1Ev
__Z16putNonEnumerableP7JSValueP8NSStringS0_
-[JSValue defineProperty:descriptor:]
-[JSValue invokeMethod:withArguments:]
__ZN3JSC16JSCallbackObjectINS_18JSAPIWrapperObjectEE24getOwnPropertyDescriptorEPNS_8JSObjectEPNS_9ExecStateENS_12PropertyNameERNS_18PropertyDescriptorE
__ZN3JSC16JSCallbackObjectINS_18JSAPIWrapperObjectEE18getOwnPropertySlotEPNS_6JSCellEPNS_9ExecStateENS_12PropertyNameERNS_12PropertySlotE
__Z35forEachProtocolImplementingProtocolP10objc_classP8ProtocolU13block_pointerFvS2_E
__ZN3WTF6VectorIP8ProtocolLm0ENS_15CrashOnOverflowEE6appendIS2_EEvPKT_m
__ZN3WTF6VectorIP8ProtocolLm0ENS_15CrashOnOverflowEE15reserveCapacityEm
_JSObjectSetPrototype
-[JSObjCClassInfo wrapperForObject:]
__Z28objCCallbackFunctionForBlockP9JSContextP11objc_object
__ZL33objCCallbackFunctionForInvocationP9JSContextP12NSInvocation12CallbackTypeP10objc_classPKc
__Z13parseObjCTypeI18ResultTypeDelegateENT_10ResultTypeERPKc
__Z13parseObjCTypeI20ArgumentTypeDelegateENT_10ResultTypeERPKc
__ZN20ArgumentTypeDelegate11typeOfClassEPKcS1_
__ZN3JSC12APIEntryShimC1EPNS_9ExecStateEb
__ZN14WeakContextRefC1EP9JSContext
__ZN3JSC18JSCallbackFunctionC2EPNS_14JSGlobalObjectEPNS_9StructureEPFPK13OpaqueJSValuePK15OpaqueJSContextPS5_SB_mPKS7_PS7_E
__ZN3JSC18JSCallbackFunction14finishCreationERNS_2VMERKN3WTF6StringE
__ZN3WTF9HashTableIP11objc_objectNS_12KeyValuePairIS2_N3JSC4WeakINS4_8JSObjectEEEEENS_24KeyValuePairKeyExtractorIS8_EENS_7PtrHashIS2_EENS_18HashMapValueTraitsINS_10HashTraitsIS2_EENSE_IS7_EEEESF_E16lookupForWritingINS_22IdentityHashTranslatorISC_EES2_EENSt3__14pairIPS8_bEERKT0_
__ZN3WTF9HashTableIP11objc_objectNS_12KeyValuePairIS2_N3JSC4WeakINS4_8JSObjectEEEEENS_24KeyValuePairKeyExtractorIS8_EENS_7PtrHashIS2_EENS_18HashMapValueTraitsINS_10HashTraitsIS2_EENSE_IS7_EEEESF_E3addINS_17HashMapTranslatorISH_SC_EES2_NS4_8PassWeakIS6_EEEENS_18HashTableAddResultINS_17HashTableIteratorIS2_S8_SA_SC_SH_SF_EEEERKT0_RKT1_
__ZN3WTF9HashTableIP11objc_objectNS_12KeyValuePairIS2_N3JSC4WeakINS4_8JSObjectEEEEENS_24KeyValuePairKeyExtractorIS8_EENS_7PtrHashIS2_EENS_18HashMapValueTraitsINS_10HashTraitsIS2_EENSE_IS7_EEEESF_E6rehashEi
-[JSObjCClassInfo dealloc]
__ZN13OpaqueJSClassD1Ev
-[JSObjCClassInfo .cxx_destruct]
__ZN29JSAPIWrapperObjectHandleOwner26isReachableFromOpaqueRootsEN3JSC6HandleINS0_7UnknownEEEPvRNS0_11SlotVisitorE
__ZN29JSAPIWrapperObjectHandleOwner8finalizeEN3JSC6HandleINS0_7UnknownEEEPv
__ZN3JSC16JSCallbackObjectINS_18JSAPIWrapperObjectEE7destroyEPNS_6JSCellE
__ZN3JSC20ObjCCallbackFunction7destroyEPNS_6JSCellE
__ZN3JSC24ObjCCallbackFunctionImplD2Ev
__ZN18CallbackResultVoidD0Ev
__ZN24CallbackArgumentNSStringD0Ev
__ZN14WeakContextRefD1Ev
__ZN16CallbackResultIdD0Ev
__ZN24CallbackArgumentNSNumberD0Ev
__ZN3WTF13tryMakeStringINS_12StringAppendIPKcNS_6StringEEES3_EENS_10PassRefPtrINS_10StringImplEEET_T0_
__ZN3JSCL29numberProtoFuncToLocaleStringEPNS_9ExecStateE
__ZN3JSCL18mathProtoFuncRoundEPNS_9ExecStateE
__ZN3WTF12AtomicString3addEPNS_10StringImplEjj
__ZN3WTF19SubstringTranslator9translateERPNS_10StringImplERKNS_17SubstringLocationEj
__ZN3JSC3JIT25emitIntTypedArrayGetByValEPNS_11InstructionERNS_22AbstractMacroAssemblerINS_12X86AssemblerEE13PatchableJumpERKNS_20TypedArrayDescriptorEmNS_20TypedArraySignednessE
__ZN3JSC20MacroAssemblerX86_649addDoubleENS_22AbstractMacroAssemblerINS_12X86AssemblerEE15AbsoluteAddressENS_12X86Registers13XMMRegisterIDE
__ZN3JSC17UnlinkedCodeBlock27addCharacterSwitchJumpTableEv
__ZN3JSC3JIT19emit_op_switch_charEPNS_11InstructionE
__ZN3JSC3DFG39throwExceptionFromCallSlowPathGeneratorEPNS_2VME
_lookupExceptionHandler
__ZN3JSCL28regExpConstructorLeftContextEPNS_9ExecStateENS_7JSValueENS_12PropertyNameE
__ZN3JSC18RegExpMatchesArray11leftContextEPNS_9ExecStateE
_cti_op_resolve_base_strict_put
__ZNK3WTF6String5splitERKS0_bRNS_6VectorIS0_Lm0ENS_15CrashOnOverflowEEE
__ZN3JSCL24dateProtoFuncSetUTCHoursEPNS_9ExecStateE
__ZN3JSCL26dateProtoFuncSetUTCMinutesEPNS_9ExecStateE
__ZN3JSCL26dateProtoFuncSetUTCSecondsEPNS_9ExecStateE
_operationEnsureDouble
__ZN3JSC8JSObject16ensureDoubleSlowERNS_2VME
__ZN3JSC4Yarr11InterpreterItE20backtrackParenthesesERNS0_8ByteTermEPNS2_18DisjunctionContextE
__ZN3JSC7JSProxy16getPropertyNamesEPNS_8JSObjectEPNS_9ExecStateERNS_17PropertyNameArrayENS_15EnumerationModeE
__ZN3JSC19JSSymbolTableObject27getOwnNonIndexPropertyNamesEPNS_8JSObjectEPNS_9ExecStateERNS_17PropertyNameArrayENS_15EnumerationModeE
__ZN3JSCL17mathProtoFuncASinEPNS_9ExecStateE
__ZN3JSC3DFG14SpeculativeJIT14speculateOtherENS0_4EdgeE
__ZN3JSC6ParserINS_5LexerItEEE18parseWithStatementINS_10ASTBuilderEEENT_9StatementERS6_
__ZN3JSC12StringObject14deletePropertyEPNS_6JSCellEPNS_9ExecStateENS_12PropertyNameE
__ZN3JSC9ExecState20regExpPrototypeTableEPS0_
__ZN3JSC12RegExpObject16getPropertyNamesEPNS_8JSObjectEPNS_9ExecStateERNS_17PropertyNameArrayENS_15EnumerationModeE
__ZN3JSC12RegExpObject27getOwnNonIndexPropertyNamesEPNS_8JSObjectEPNS_9ExecStateERNS_17PropertyNameArrayENS_15EnumerationModeE
__ZN3JSC9ExecState9dateTableEPS0_
__ZN3JSC9ExecState21arrayConstructorTableEPS0_
__ZN3JSCL19arrayProtoFuncEveryEPNS_9ExecStateE
__ZN3JSC7JSArray19sortCompactedVectorILh21ENS_12WriteBarrierINS_7UnknownEEEEEvPNS_9ExecStateENS_14ContiguousDataIT0_EEj
__ZN3JSCL26numberProtoFuncToPrecisionEPNS_9ExecStateE
__ZN3JSCL19dateProtoFuncToJSONEPNS_9ExecStateE
__ZN3JSC9Arguments21deletePropertyByIndexEPNS_6JSCellEPNS_9ExecStateEj
__ZN3JSC9Arguments3putEPNS_6JSCellEPNS_9ExecStateENS_12PropertyNameENS_7JSValueERNS_15PutPropertySlotE
__ZN3JSCL25arrayProtoFuncLastIndexOfEPNS_9ExecStateE
__ZN3JSC16createRangeErrorEPNS_9ExecStateERKN3WTF6StringE
__ZN3JSC9ExecState20dateConstructorTableEPS0_
__ZN3JSC9ExecState22objectConstructorTableEPS0_
_operationStringFromCharCode
__ZN3JSC18stringFromCharCodeEPNS_9ExecStateEi
__ZN3WTF6VectorItLm64ENS_20UnsafeVectorOverflowEE18tryReserveCapacityEm
__ZN3JSC3DFG14SpeculativeJIT13callOperationEPFxPNS_9ExecStateEdPNS_7JSArrayEENS_12X86Registers10RegisterIDENS8_13XMMRegisterIDES9_
__ZN3JSC15DateConstructor11getCallDataEPNS_6JSCellERNS_8CallDataE
__ZN3JSCL8callDateEPNS_9ExecStateE
__ZN3JSCL31objectConstructorGetPrototypeOfEPNS_9ExecStateE
__ZN3JSC3DFG14SpeculativeJIT13callOperationEPFPcPNS_9ExecStateEPNS_9StructureEPvmENS_12X86Registers10RegisterIDES6_S7_m
_operationNewArray
__ZN3JSCL27dateProtoFuncSetUTCFullYearEPNS_9ExecStateE
__ZN3JSCL24dateProtoFuncSetUTCMonthEPNS_9ExecStateE
__ZN3JSCL31dateProtoFuncSetUTCMillisecondsEPNS_9ExecStateE
__ZN3JSC4Yarr13YarrGeneratorILNS0_18YarrJITCompileModeE0EE29generatePatternCharacterFixedEm
__ZN3JSC6ParserINS_5LexerIhEEE22parseDebuggerStatementINS_13SyntaxCheckerEEENT_9StatementERS6_
__ZN3JSC4Yarr22YarrPatternConstructor5resetEv
__ZN3JSC4Yarr11YarrPattern5resetEv
__ZN3JSC4Yarr25CharacterClassConstructor5resetEv
__ZNK3JSC14ExpressionNode17isDotAccessorNodeEv
__ZN3JSC17BytecodeGenerator23emitThrowReferenceErrorERKN3WTF6StringE
__ZN3JSC8JSObject25convertDoubleToContiguousERNS_2VME
_operationPutByValBeyondArrayBoundsStrict
__ZN3JSC26createNotAConstructorErrorEPNS_9ExecStateENS_7JSValueE
__ZN3JSCL22regExpProtoFuncCompileEPNS_9ExecStateE
__ZN3WTF6VectorIN3JSC14ScopeLabelInfoELm2ENS_15CrashOnOverflowEE15reserveCapacityEm
__ZN3JSC3JIT25emitIntTypedArrayPutByValEPNS_11InstructionERNS_22AbstractMacroAssemblerINS_12X86AssemblerEE13PatchableJumpERKNS_20TypedArrayDescriptorEmNS_20TypedArraySignednessENS_18TypedArrayRoundingE
__ZN3JSC12X86Assembler23X86InstructionFormatter10oneByteOp8ENS0_15OneByteOpcodeIDEiNS_12X86Registers10RegisterIDES4_ii
__ZN3JSC3DFG14SpeculativeJIT31compilePutByValForIntTypedArrayERKNS_20TypedArrayDescriptorENS_12X86Registers10RegisterIDES6_PNS0_4NodeEmNS_20TypedArraySignednessENS_18TypedArrayRoundingE
__ZN3JSCL23booleanProtoFuncValueOfEPNS_9ExecStateE
__ZN3JSCL22dateProtoFuncGetUTCDayEPNS_9ExecStateE
__ZN3JSC8JSObject18createInitialInt32ERNS_2VMEj
__ZN3WTF6VectorItLm64ENS_20UnsafeVectorOverflowEE15reserveCapacityEm
_cti_op_switch_char
__ZN3WTF6VectorIN3JSC7JSValueELm16ENS_15CrashOnOverflowEE15reserveCapacityEm
__ZN3JSCL36objectConstructorGetOwnPropertyNamesEPNS_9ExecStateE
__ZN3JSCL41objectConstructorGetOwnPropertyDescriptorEPNS_9ExecStateE
__ZN3JSC15DateConstructor24getOwnPropertyDescriptorEPNS_8JSObjectEPNS_9ExecStateENS_12PropertyNameERNS_18PropertyDescriptorE
__ZN3JSC27getStaticFunctionDescriptorINS_16InternalFunctionEEEbPNS_9ExecStateEPKNS_9HashTableEPNS_8JSObjectENS_12PropertyNameERNS_18PropertyDescriptorE
__ZN3JSC16ArrayConstructor24getOwnPropertyDescriptorEPNS_8JSObjectEPNS_9ExecStateENS_12PropertyNameERNS_18PropertyDescriptorE
__ZNK3JSC18PropertyDescriptor6getterEv
__ZNK3JSC18PropertyDescriptor6setterEv
__ZN3JSC16BooleanPrototype24getOwnPropertyDescriptorEPNS_8JSObjectEPNS_9ExecStateENS_12PropertyNameERNS_18PropertyDescriptorE
__ZN3JSC27getStaticFunctionDescriptorINS_13BooleanObjectEEEbPNS_9ExecStateEPKNS_9HashTableEPNS_8JSObjectENS_12PropertyNameERNS_18PropertyDescriptorE
__ZN3JSC17NumberConstructor24getOwnPropertyDescriptorEPNS_8JSObjectEPNS_9ExecStateENS_12PropertyNameERNS_18PropertyDescriptorE
__ZN3JSC24getStaticValueDescriptorINS_17NumberConstructorENS_16InternalFunctionEEEbPNS_9ExecStateEPKNS_9HashTableEPT_NS_12PropertyNameERNS_18PropertyDescriptorE
__ZN3JSC12StringObject17defineOwnPropertyEPNS_8JSObjectEPNS_9ExecStateENS_12PropertyNameERNS_18PropertyDescriptorEb
__ZN3JSC17StringConstructor24getOwnPropertyDescriptorEPNS_8JSObjectEPNS_9ExecStateENS_12PropertyNameERNS_18PropertyDescriptorE
__ZN3JSC7JSArray17defineOwnPropertyEPNS_8JSObjectEPNS_9ExecStateENS_12PropertyNameERNS_18PropertyDescriptorEb
__ZN3JSC12RegExpObject17defineOwnPropertyEPNS_8JSObjectEPNS_9ExecStateENS_12PropertyNameERNS_18PropertyDescriptorEb
__ZN3JSC17RegExpConstructor24getOwnPropertyDescriptorEPNS_8JSObjectEPNS_9ExecStateENS_12PropertyNameERNS_18PropertyDescriptorE
__ZN3JSC24getStaticValueDescriptorINS_17RegExpConstructorENS_16InternalFunctionEEEbPNS_9ExecStateEPKNS_9HashTableEPT_NS_12PropertyNameERNS_18PropertyDescriptorE
__ZN3JSCL28numberConstructorPosInfinityEPNS_9ExecStateENS_7JSValueENS_12PropertyNameE
__ZN3JSC7JSArray17compactForSortingILh23EEEvRjS2_
__ZN3JSCL32compareNumbersForQSortWithDoubleEPKvS1_
__ZN3JSC6ParserINS_5LexerIhEEE18updateErrorMessageENS_11JSTokenTypeE
__ZN3JSC11ParserError13toErrorObjectEPNS_14JSGlobalObjectERKNS_10SourceCodeE
__ZN3JSCL18mathProtoFuncATan2EPNS_9ExecStateE
__ZNK3JSC5LexerItE23invalidCharacterMessageEv
__ZN3JSC6ParserINS_5LexerItEEE18updateErrorMessageEv
__ZN3JSC6ParserINS_5LexerItEEE12getTokenNameENS_11JSTokenTypeE
__ZN3WTF13tryMakeStringINS_12StringAppendIPKcNS_6StringEEEcEENS_10PassRefPtrINS_10StringImplEEET_T0_
__ZN3JSC6ParserINS_5LexerItEEE22parseDebuggerStatementINS_13SyntaxCheckerEEENT_9StatementERS6_
__ZN3JSC3DFG14SpeculativeJIT22compileNewStringObjectEPNS0_4NodeE
__ZN3JSC3DFG42CallResultAndTwoArgumentsSlowPathGeneratorINS_22AbstractMacroAssemblerINS_12X86AssemblerEE8JumpListEPFPNS_6JSCellEPNS_9ExecStateEPNS_8JSObjectEiENS_12X86Registers10RegisterIDESF_jE16generateInternalEPNS0_14SpeculativeJITE
__ZN3JSC3DFG42CallResultAndTwoArgumentsSlowPathGeneratorINS_22AbstractMacroAssemblerINS_12X86AssemblerEE8JumpListEPFPNS_6JSCellEPNS_9ExecStateEPNS_8JSObjectEiENS_12X86Registers10RegisterIDESF_jEC2ES5_PNS0_14SpeculativeJITESD_NS0_18SpillRegistersModeESF_SF_j
__ZN3JSC3DFG42CallResultAndTwoArgumentsSlowPathGeneratorINS_22AbstractMacroAssemblerINS_12X86AssemblerEE8JumpListEPFPNS_6JSCellEPNS_9ExecStateEPNS_8JSObjectEiENS_12X86Registers10RegisterIDESF_jED0Ev
__ZN3JSC3DFG42CallResultAndTwoArgumentsSlowPathGeneratorINS_22AbstractMacroAssemblerINS_12X86AssemblerEE8JumpListEPFPNS_6JSCellEPNS_9ExecStateEPNS_8JSObjectEiENS_12X86Registers10RegisterIDESF_jED1Ev
__ZN3JSC3DFG42CallResultAndTwoArgumentsSlowPathGeneratorINS_22AbstractMacroAssemblerINS_12X86AssemblerEE8JumpListEPFPNS_6JSCellEPNS_9ExecStateEPNS_8JSStringEPNS_9StructureEENS_12X86Registers10RegisterIDESH_SD_E16generateInternalEPNS0_14SpeculativeJITE
__ZN3JSC3DFG42CallResultAndTwoArgumentsSlowPathGeneratorINS_22AbstractMacroAssemblerINS_12X86AssemblerEE8JumpListEPFPNS_6JSCellEPNS_9ExecStateEPNS_8JSStringEPNS_9StructureEENS_12X86Registers10RegisterIDESH_SD_EC2ES5_PNS0_14SpeculativeJITESF_NS0_18SpillRegistersModeESH_SH_SD_
__ZN3JSC3DFG42CallResultAndTwoArgumentsSlowPathGeneratorINS_22AbstractMacroAssemblerINS_12X86AssemblerEE8JumpListEPFPNS_6JSCellEPNS_9ExecStateEPNS_8JSStringEPNS_9StructureEENS_12X86Registers10RegisterIDESH_SD_ED0Ev
__ZN3JSC3DFG42CallResultAndTwoArgumentsSlowPathGeneratorINS_22AbstractMacroAssemblerINS_12X86AssemblerEE8JumpListEPFPNS_6JSCellEPNS_9ExecStateEPNS_8JSStringEPNS_9StructureEENS_12X86Registers10RegisterIDESH_SD_ED1Ev
__ZN3JSC3DFG42CallResultAndTwoArgumentsSlowPathGeneratorINS_22AbstractMacroAssemblerINS_12X86AssemblerEE8JumpListEPFPNS_6JSCellEPNS_9ExecStateEPNS_8JSStringESB_ENS_12X86Registers10RegisterIDESF_SF_E16generateInternalEPNS0_14SpeculativeJITE
__ZN3JSC3DFG42CallResultAndTwoArgumentsSlowPathGeneratorINS_22AbstractMacroAssemblerINS_12X86AssemblerEE8JumpListEPFPNS_6JSCellEPNS_9ExecStateEPNS_8JSStringESB_ENS_12X86Registers10RegisterIDESF_SF_EC2ES5_PNS0_14SpeculativeJITESD_NS0_18SpillRegistersModeESF_SF_SF_
__ZN3JSC3DFG42CallResultAndTwoArgumentsSlowPathGeneratorINS_22AbstractMacroAssemblerINS_12X86AssemblerEE8JumpListEPFPNS_6JSCellEPNS_9ExecStateEPNS_8JSStringESB_ENS_12X86Registers10RegisterIDESF_SF_ED0Ev
__ZN3JSC3DFG42CallResultAndTwoArgumentsSlowPathGeneratorINS_22AbstractMacroAssemblerINS_12X86AssemblerEE8JumpListEPFPNS_6JSCellEPNS_9ExecStateEPNS_8JSStringESB_ENS_12X86Registers10RegisterIDESF_SF_ED1Ev
__ZN3JSC3DFG21CallSlowPathGeneratorINS_22AbstractMacroAssemblerINS_12X86AssemblerEE8JumpListEPFPNS_6JSCellEPNS_9ExecStateEPNS_8JSObjectEiENS_12X86Registers10RegisterIDEEC2ES5_PNS0_14SpeculativeJITESD_NS0_18SpillRegistersModeESF_
__ZN3JSC3DFG21CallSlowPathGeneratorINS_22AbstractMacroAssemblerINS_12X86AssemblerEE8JumpListEPFPNS_6JSCellEPNS_9ExecStateEPNS_8JSObjectEiENS_12X86Registers10RegisterIDEED0Ev
__ZN3JSC3DFG21CallSlowPathGeneratorINS_22AbstractMacroAssemblerINS_12X86AssemblerEE8JumpListEPFPNS_6JSCellEPNS_9ExecStateEPNS_8JSObjectEiENS_12X86Registers10RegisterIDEED1Ev
__ZN3JSC3DFG21CallSlowPathGeneratorINS_22AbstractMacroAssemblerINS_12X86AssemblerEE8JumpListEPFPNS_6JSCellEPNS_9ExecStateEPNS_8JSStringEPNS_9StructureEENS_12X86Registers10RegisterIDEEC2ES5_PNS0_14SpeculativeJITESF_NS0_18SpillRegistersModeESH_
__ZN3JSC3DFG21CallSlowPathGeneratorINS_22AbstractMacroAssemblerINS_12X86AssemblerEE8JumpListEPFPNS_6JSCellEPNS_9ExecStateEPNS_8JSStringEPNS_9StructureEENS_12X86Registers10RegisterIDEED0Ev
__ZN3JSC3DFG21CallSlowPathGeneratorINS_22AbstractMacroAssemblerINS_12X86AssemblerEE8JumpListEPFPNS_6JSCellEPNS_9ExecStateEPNS_8JSStringEPNS_9StructureEENS_12X86Registers10RegisterIDEED1Ev
__ZN3JSC3DFG21CallSlowPathGeneratorINS_22AbstractMacroAssemblerINS_12X86AssemblerEE8JumpListEPFPNS_6JSCellEPNS_9ExecStateEPNS_8JSStringESB_ENS_12X86Registers10RegisterIDEEC2ES5_PNS0_14SpeculativeJITESD_NS0_18SpillRegistersModeESF_
__ZN3JSC3DFG21CallSlowPathGeneratorINS_22AbstractMacroAssemblerINS_12X86AssemblerEE8JumpListEPFPNS_6JSCellEPNS_9ExecStateEPNS_8JSStringESB_ENS_12X86Registers10RegisterIDEED0Ev
__ZN3JSC3DFG21CallSlowPathGeneratorINS_22AbstractMacroAssemblerINS_12X86AssemblerEE8JumpListEPFPNS_6JSCellEPNS_9ExecStateEPNS_8JSStringESB_ENS_12X86Registers10RegisterIDEED1Ev
__ZN3JSC3DFG21CallSlowPathGeneratorINS_22AbstractMacroAssemblerINS_12X86AssemblerEE8JumpListEPFPNS_6JSCellEPNS_9ExecStateEPNS_8JSStringESB_SB_ENS_12X86Registers10RegisterIDEEC2ES5_PNS0_14SpeculativeJITESD_NS0_18SpillRegistersModeESF_
__ZN3JSC3DFG21CallSlowPathGeneratorINS_22AbstractMacroAssemblerINS_12X86AssemblerEE8JumpListEPFPNS_6JSCellEPNS_9ExecStateEPNS_8JSStringESB_SB_ENS_12X86Registers10RegisterIDEED0Ev
__ZN3JSC3DFG21CallSlowPathGeneratorINS_22AbstractMacroAssemblerINS_12X86AssemblerEE8JumpListEPFPNS_6JSCellEPNS_9ExecStateEPNS_8JSStringESB_SB_ENS_12X86Registers10RegisterIDEED1Ev
__ZN3JSC3DFG14SpeculativeJIT13callOperationEPFPNS_6JSCellEPNS_9ExecStateEPNS_8JSStringEPNS_9StructureEENS_12X86Registers10RegisterIDESD_S9_
__ZN3JSCL24regExpConstructorDollar3EPNS_9ExecStateENS_7JSValueENS_12PropertyNameE
__ZN3JSCL24regExpConstructorDollar5EPNS_9ExecStateENS_7JSValueENS_12PropertyNameE
__ZN3JSCL31dateProtoFuncToLocaleTimeStringEPNS_9ExecStateE
__ZN3JSC14ErrorPrototype24getOwnPropertyDescriptorEPNS_8JSObjectEPNS_9ExecStateENS_12PropertyNameERNS_18PropertyDescriptorE
__ZN3JSC27getStaticFunctionDescriptorINS_13ErrorInstanceEEEbPNS_9ExecStateEPKNS_9HashTableEPNS_8JSObjectENS_12PropertyNameERNS_18PropertyDescriptorE
__ZN3JSC3DFG14SpeculativeJIT13callOperationEPFvPNS_9ExecStateEPNS_8JSObjectEidENS_12X86Registers10RegisterIDES9_NS8_13XMMRegisterIDE
__ZN3JSCL25arrayProtoFuncReduceRightEPNS_9ExecStateE
__ZN3JSC22boundFunctionConstructEPNS_9ExecStateE
__ZN3JSC9constructEPNS_9ExecStateENS_7JSValueENS_13ConstructTypeERKNS_13ConstructDataERKNS_7ArgListE
__ZN3JSC11Interpreter16executeConstructEPNS_9ExecStateEPNS_8JSObjectENS_13ConstructTypeERKNS_13ConstructDataERKNS_7ArgListE
__ZN3WTF4SHA1C1Ev
__ZN3WTF4SHA18addBytesEPKhm
__ZN3WTF4SHA111computeHashERNS_6VectorIhLm20ENS_15CrashOnOverflowEEE
__ZN3WTF4SHA18finalizeEv
__ZN3WTF4SHA112processBlockEv
__ZN3JSCL31dateProtoFuncToLocaleDateStringEPNS_9ExecStateE
__ZN3JSCL25dateProtoFuncToTimeStringEPNS_9ExecStateE
_operationArrayPushDouble
__ZN3WTF10StringImpl32simplifyMatchedCharactersToSpaceIhNS_23SpaceOrNewlinePredicateEEENS_10PassRefPtrIS0_EET0_
__ZN3JSC17ObjectConstructor24getOwnPropertyDescriptorEPNS_8JSObjectEPNS_9ExecStateENS_12PropertyNameERNS_18PropertyDescriptorE
__ZN3JSC4Yarr11InterpreterItE26matchAssertionWordBoundaryERNS0_8ByteTermE
__ZN3JSC14throwTypeErrorEPNS_9ExecStateE
__ZN3JSC4Heap11objectCountEv
__ZN3JSC11MarkedSpace12forEachBlockINS_9MarkCountEEENT_10ReturnTypeERS3_
__ZN3JSC4Heap17globalObjectCountEv
__ZN3JSC4Heap20protectedObjectCountEv
__ZN3JSC4Heap25protectedObjectTypeCountsEv
__ZN3WTF9HashTableIPKcNS_12KeyValuePairIS2_jEENS_24KeyValuePairKeyExtractorIS4_EENS_7PtrHashIS2_EENS_18HashMapValueTraitsINS_10HashTraitsIS2_EENSA_IjEEEESB_E16lookupForWritingINS_22IdentityHashTranslatorIS8_EES2_EENSt3__14pairIPS4_bEERKT0_
__ZN3WTF9HashTableIPKcNS_12KeyValuePairIS2_jEENS_24KeyValuePairKeyExtractorIS4_EENS_7PtrHashIS2_EENS_18HashMapValueTraitsINS_10HashTraitsIS2_EENSA_IjEEEESB_E3addINS_17HashMapTranslatorISD_S8_EES2_jEENS_18HashTableAddResultINS_17HashTableIteratorIS2_S4_S6_S8_SD_SB_EEEERKT0_RKT1_
__ZN3JSC4Heap16objectTypeCountsEv
__ZN3JSCL29regExpConstructorRightContextEPNS_9ExecStateENS_7JSValueENS_12PropertyNameE
__ZN3JSC18RegExpMatchesArray12rightContextEPNS_9ExecStateE
__ZN3WTF14tryFastReallocEPvm
__ZN3JSC2VM6createENS_8HeapTypeE
__ZN3JSC3JIT25emit_op_put_getter_setterEPNS_11InstructionE
_cti_op_put_getter_setter
_operationPutByIdStrictBuildList
_operationPutByIdStrictBuildListWithReturnAddress
__ZN3WTF7Unicode18equalUTF16WithUTF8EPKtS2_PKcS4_
__ZN3JSC8Watchdog4fireEv
__ZN3JSC8DebuggerD2Ev
__ZN3JSC2VMD1Ev
__ZN3JSC2VMD2Ev
__ZN3JSC6JSLock13willDestroyVMEPNS_2VME
__ZN3JSC4Heap20lastChanceToFinalizeEv
__ZN3JSC11MarkedSpace20lastChanceToFinalizeEv
__ZN3JSC11MarkedSpace12forEachBlockINS_20LastChanceToFinalizeEEENT_10ReturnTypeERS3_
__ZN3JSC9WeakBlock20lastChanceToFinalizeEv
__ZN3JSC11InterpreterD1Ev
__ZN3JSC7JSStackD1Ev
__ZN3JSC7JSStackD2Ev
__ZNK3JSC9HashTable11deleteTableEv
__ZN3JSC17CommonIdentifiersD2Ev
__ZN3JSC2VM10ClientDataD2Ev
__ZN3JSC11RegExpCacheD0Ev
__ZN3JSC9JITThunksD1Ev
__ZN3JSC9JITThunksD2Ev
__ZN3JSC12PrototypeMapD2Ev
__ZN3JSC14NumericStringsD2Ev
__ZN3JSC12SmallStringsD1Ev
__ZN3JSC8WatchdogD1Ev
__ZN3JSC8Watchdog12destroyTimerEv
__ZN3JSC3DFG14LongLivedStateD1Ev
__ZN3JSC4HeapD1Ev
__ZN3JSC4HeapD2Ev
__ZN3JSC18IncrementalSweeperD0Ev
__ZN3JSC9HeapTimerD2Ev
__ZN3JSC25DefaultGCActivityCallbackD0Ev
__ZN3JSC17JITStubRoutineSetD1Ev
__ZN3JSC17JITStubRoutineSetD2Ev
__ZN3JSC13DFGCodeBlocksD1Ev
__ZN3JSC13DFGCodeBlocksD2Ev
__ZN3JSC9HandleSetD1Ev
__ZN3JSC11SlotVisitorD1Ev
__ZN3JSC14MarkStackArrayD1Ev
__ZN3JSC18GCThreadSharedDataD1Ev
__ZN3JSC18GCThreadSharedDataD2Ev
__ZN3JSC8GCThread8threadIDEv
__ZN3WTF14ThreadSpecificIbE7destroyEPv
__ZN3JSC14MachineThreadsD1Ev
__ZN3JSC11CopiedSpaceD1Ev
__ZN3JSC11CopiedSpaceD2Ev
__ZN3JSC11MarkedSpaceD1Ev
__ZN3JSC11MarkedSpace12forEachBlockINS_4FreeEEENT_10ReturnTypeERS3_
__ZN3JSC11SuperRegionD1Ev
__ZN3WTF13MetaAllocatorD2Ev
__ZN3JSC19ExecutableAllocatorD1Ev
__ZN3WTF14ThreadSpecificINS_13WTFThreadDataEE7destroyEPv
__ZN3WTF13WTFThreadDataD1Ev
__ZN3WTF13WTFThreadDataD2Ev
__ZN3WTF17AtomicStringTable7destroyEPS0_
__ZN3JSC3DFG10FixupPhase19convertStringAddUseILNS0_7UseKindE14EEEvPNS0_4NodeERNS0_4EdgeE
__ZN3JSC3JIT20emit_op_put_by_indexEPNS_11InstructionE
_cti_op_put_by_index
__ZN3JSC7JSArray10sortVectorILh29EEEvPNS_9ExecStateENS_7JSValueENS_8CallTypeERKNS_8CallDataE
__ZN3WTF17double_conversionL12FillDigits64EyNS0_15BufferReferenceIcEEPi
__ZN3WTF6VectorIN3JSC11ParserStateELm16ENS_20UnsafeVectorOverflowEE15reserveCapacityEm
__ZN3JSC20StrictEvalActivationC1EPNS_9ExecStateE
__ZN3JSC3DFGL8putByValILb1EEEvPNS_9ExecStateENS_7JSValueEjS4_
_operationPutByIdDirectStrictOptimize
_operationPutByIdDirectStrictOptimizeWithReturnAddress
_operationPutByIdDirectStrict
__ZN3JSC4Yarr13YarrGeneratorILNS0_18YarrJITCompileModeE0EE33generatePatternCharacterNonGreedyEm
__ZN3JSC4Yarr13YarrGeneratorILNS0_18YarrJITCompileModeE0EE34backtrackPatternCharacterNonGreedyEm
__ZN3JSC3DFG14SpeculativeJIT30compileGetByValOnIntTypedArrayERKNS_20TypedArrayDescriptorEPNS0_4NodeEmNS_20TypedArraySignednessE
__ZN3JSC18PropertyDescriptor12setUndefinedEv
__ZN3JSCL25dateProtoFuncToDateStringEPNS_9ExecStateE
__ZN3JSCL24regExpConstructorDollar7EPNS_9ExecStateENS_7JSValueENS_12PropertyNameE
__ZN3JSC6ParserINS_5LexerItEEE18updateErrorMessageENS_11JSTokenTypeE
__ZN3JSC6ParserINS_5LexerIhEEE22parseDebuggerStatementINS_10ASTBuilderEEENT_9StatementERS6_
__ZN3JSC21DebuggerStatementNode12emitBytecodeERNS_17BytecodeGeneratorEPNS_10RegisterIDE
__ZN3JSC16ProgramCodeBlock11replacementEv
__ZN3JSC16ProgramCodeBlock16compileOptimizedEPNS_9ExecStateEPNS_7JSScopeEj
__ZN3JSC17ProgramExecutable16compileOptimizedEPNS_9ExecStateEPNS_7JSScopeEj
__ZN3WTF10StringImpl20create8BitIfPossibleEPKt
__ZN3JSCL21isNonLatin1IdentStartEi
__ZN3WTF9HashTableIPN3JSC15InlineCallFrameES3_NS_17IdentityExtractorENS_7PtrHashIS3_EENS_18NullableHashTraitsIS3_EES8_E16lookupForWritingINS_22IdentityHashTranslatorIS6_EES3_EENSt3__14pairIPS3_bEERKT0_
_operationResolveBase
__ZN3JSC6ParserINS_5LexerItEEE21parseConstDeclarationINS_13SyntaxCheckerEEENT_9StatementERS6_
__ZN3JSC14createURIErrorEPNS_9ExecStateERKN3WTF6StringE
_WTFLogAlways
_vprintf_stderr_common
__ZN3WTF10makeStringINS_6StringES1_EES1_T_T0_
__ZN3WTF13tryMakeStringINS_6StringES1_EENS_10PassRefPtrINS_10StringImplEEET_T0_
__ZN3JSC10LocalStackINS_7JSArrayELj16EE4pushEPS1_
__ZN3JSCL17mathProtoFuncCeilEPNS_9ExecStateE
__ZN3JSC20MacroAssemblerX86_6411branchTest8ENS_23MacroAssemblerX86Common15ResultConditionENS_22AbstractMacroAssemblerINS_12X86AssemblerEE15AbsoluteAddressENS5_12TrustedImm32E
__ZN3JSC20MacroAssemblerX86_6411branchTest8ENS_23MacroAssemblerX86Common15ResultConditionENS_22AbstractMacroAssemblerINS_12X86AssemblerEE15ExtendedAddressENS5_12TrustedImm32E
__ZN3JSCL24regExpConstructorDollar6EPNS_9ExecStateENS_7JSValueENS_12PropertyNameE
__ZN3JSC5LexerIhE23parseIdentifierSlowCaseILb1EEENS_11JSTokenTypeEPNS_11JSTokenDataEjb
__ZN3JSC4Yarr13YarrGeneratorILNS0_18YarrJITCompileModeE1EE33generatePatternCharacterNonGreedyEm
__ZN3JSC4Yarr13YarrGeneratorILNS0_18YarrJITCompileModeE1EE34backtrackPatternCharacterNonGreedyEm
_JSStringIsEqualToUTF8CString
_JSStringIsEqual
__ZN3WTF3MD5C1Ev
__ZN3WTF3MD58addBytesEPKhm
__ZN3WTFL12MD5TransformEPjPKj
__ZN3WTF3MD58checksumERNS_6VectorIhLm16ENS_15CrashOnOverflowEEE
__ZNK3WTF6String8toUInt64EPb
__ZN3WTF10StringImpl8toUInt64EPb
__ZN3WTF18charactersToUInt64EPKtmPb
__ZN3WTFL14toIntegralTypeIytEET_PKT0_mPbi
_JSValueIsEqual
__ZN3WTF6String6numberEl
__ZN3JSC8Debugger23recompileAllJSFunctionsEPNS_2VME
__ZN3WTF9HashTableIPN3JSC18FunctionExecutableES3_NS_17IdentityExtractorENS_7PtrHashIS3_EENS_10HashTraitsIS3_EES8_E3addINS_22IdentityHashTranslatorIS6_EES3_S3_EENS_18HashTableAddResultINS_17HashTableIteratorIS3_S3_S4_S6_S8_S8_EEEERKT0_RKT1_
__ZN3JSC18FunctionExecutable47clearUnlinkedCodeForRecompilationIfNotCompilingEv
__ZN3WTF9HashTableIPN3JSC18FunctionExecutableES3_NS_17IdentityExtractorENS_7PtrHashIS3_EENS_10HashTraitsIS3_EES8_E16lookupForWritingINS_22IdentityHashTranslatorIS6_EES3_EENSt3__14pairIPS3_bEERKT0_
__ZN3JSC8Debugger6attachEPNS_14JSGlobalObjectE
__ZN3WTF9HashTableIPN3JSC14JSGlobalObjectES3_NS_17IdentityExtractorENS_7PtrHashIS3_EENS_10HashTraitsIS3_EES8_E3addINS_22IdentityHashTranslatorIS6_EES3_S3_EENS_18HashTableAddResultINS_17HashTableIteratorIS3_S3_S4_S6_S8_S8_EEEERKT0_RKT1_
__ZN3WTF9HashTableIPN3JSC14SourceProviderENS_12KeyValuePairIS3_PNS1_9ExecStateEEENS_24KeyValuePairKeyExtractorIS7_EENS_7PtrHashIS3_EENS_18HashMapValueTraitsINS_10HashTraitsIS3_EENSD_IS6_EEEESE_E16lookupForWritingINS_22IdentityHashTranslatorISB_EES3_EENSt3__14pairIPS7_bEERKT0_
__ZN3WTF9HashTableIPN3JSC14SourceProviderENS_12KeyValuePairIS3_PNS1_9ExecStateEEENS_24KeyValuePairKeyExtractorIS7_EENS_7PtrHashIS3_EENS_18HashMapValueTraitsINS_10HashTraitsIS3_EENSD_IS6_EEEESE_E3addINS_17HashMapTranslatorISG_SB_EES3_S6_EENS_18HashTableAddResultINS_17HashTableIteratorIS3_S7_S9_SB_SG_SE_EEEERKT0_RKT1_
__ZN3JSC12X86Assembler3jnpEv
__ZN3JSC23MacroAssemblerX86Common28branchTruncateDoubleToUint32ENS_12X86Registers13XMMRegisterIDENS1_10RegisterIDENS0_18BranchTruncateTypeE
__ZN3JSC8Debugger6detachEPNS_14JSGlobalObjectE
__ZN3WTF7HashSetIPN3JSC14JSGlobalObjectENS_7PtrHashIS3_EENS_10HashTraitsIS3_EEE6removeENS_29HashTableConstIteratorAdapterINS_9HashTableIS3_S3_NS_17IdentityExtractorES5_S7_S7_EES3_EE
__ZN3JSC11Interpreter5debugEPNS_9ExecStateENS_11DebugHookIDEiii
__ZN3WTF9HashTableIPN3JSC14JSGlobalObjectES3_NS_17IdentityExtractorENS_7PtrHashIS3_EENS_10HashTraitsIS3_EES8_E16lookupForWritingINS_22IdentityHashTranslatorIS6_EES3_EENSt3__14pairIPS3_bEERKT0_
__ZN3JSC3JIT13emit_op_debugEPNS_11InstructionE
__ZN3JSC3JIT25emit_op_profile_will_callEPNS_11InstructionE
__ZN3JSC3JIT24emit_op_profile_did_callEPNS_11InstructionE
_cti_op_debug
_cti_op_profile_will_call
_cti_op_profile_did_call
__ZN3JSC9ExecState19errorPrototypeTableEPS0_
_JSObjectSetPropertyAtIndex
__ZN3WTF16charactersToUIntEPKtmPb
__ZN3JSCL28numberProtoFuncToExponentialEPNS_9ExecStateE
__ZNK3WTF17double_conversion23DoubleToStringConverter13ToExponentialEdiPNS0_13StringBuilderE
__ZN3JSC6ParserINS_5LexerIhEEE18updateErrorMessageEPKc
__ZN3JSC17BytecodeGenerator29emitReadOnlyExceptionIfNeededEv
__ZN3JSC8JSObject13countElementsEv
__ZN3JSC4Heap17collectAllGarbageEv
__ZN3JSC11MarkedSpace5sweepEv
__ZN3JSC18IncrementalSweeper18willFinishSweepingEv
__ZN3JSC11MarkedSpace12forEachBlockINS_5SweepEEENT_10ReturnTypeERS3_
__ZN3JSC11MarkedSpace6shrinkEv
__ZN3WTF6String24numberToStringFixedWidthEdj
__ZN3JSC7JSProxy10putByIndexEPNS_6JSCellEPNS_9ExecStateEjNS_7JSValueEb
__ZN3JSC7JSProxy21deletePropertyByIndexEPNS_6JSCellEPNS_9ExecStateEj
__ZN3JSC7JSProxy24getOwnPropertyDescriptorEPNS_8JSObjectEPNS_9ExecStateENS_12PropertyNameERNS_18PropertyDescriptorE
__ZN3JSC15createEvalErrorEPNS_9ExecStateERKN3WTF6StringE
__ZN3WTF6String6appendEt
__ZN3JSC29createNotEnoughArgumentsErrorEPNS_9ExecStateE
__ZN3JSC14JSGlobalObject16allowsAccessFromEPKS0_PNS_9ExecStateE
__ZN3JSC33throwTerminatedExecutionExceptionEPNS_9ExecStateE
_JSStringCreateWithCharacters
__ZNK3WTF6String18simplifyWhiteSpaceEv
_WTFCrash
_WTFPrintBacktrace
_printf_stderr_common
__ZN3JSC14throwTypeErrorEPNS_9ExecStateERKN3WTF6StringE
__ZN3JSC3JIT27emitFloatTypedArrayGetByValEPNS_11InstructionERNS_22AbstractMacroAssemblerINS_12X86AssemblerEE13PatchableJumpERKNS_20TypedArrayDescriptorEm
__ZN3JSC3JIT27emitFloatTypedArrayPutByValEPNS_11InstructionERNS_22AbstractMacroAssemblerINS_12X86AssemblerEE13PatchableJumpERKNS_20TypedArrayDescriptorEm
__ZN3WTF11ArrayBuffer8transferERNS_19ArrayBufferContentsERNS_6VectorINS_6RefPtrINS_15ArrayBufferViewEEELm0ENS_15CrashOnOverflowEEE
__ZN3WTF15ArrayBufferView6neuterEv
__ZN3WTF6VectorINS_6RefPtrINS_15ArrayBufferViewEEELm0ENS_15CrashOnOverflowEE14expandCapacityEm
__ZN3JSC14JSGlobalObject12haveABadTimeERNS_2VME
__ZN3JSC8JSObject27switchToSlowPutArrayStorageERNS_2VME
__ZN3JSC16ProgramCodeBlock12jettisonImplEv
__ZN3JSC17ProgramExecutable21jettisonOptimizedCodeERNS_2VME
_JSStringGetUTF8CString
__ZN3JSC24createStackOverflowErrorEPNS_9ExecStateE
__ZN3JSC7JSStack21releaseExcessCapacityEv
__ZN3JSC16JSCallbackObjectINS_20JSDestructibleObjectEE12defaultValueEPKNS_8JSObjectEPNS_9ExecStateENS_22PreferredPrimitiveTypeE
__ZN3JSC16JSCallbackObjectINS_20JSDestructibleObjectEE9classNameEPKNS_8JSObjectE
__ZN13OpaqueJSClass9classNameEv
__ZN3JSC12PrototypeMap37clearEmptyObjectStructureForPrototypeEPNS_8JSObjectEj
__ZN3JSC23throwStackOverflowErrorEPNS_9ExecStateE
__ZN3JSC15AssignErrorNode12emitBytecodeERNS_17BytecodeGeneratorEPNS_10RegisterIDE
__ZN3WTF6VectorIN3JSC5LocalINS1_7JSArrayEEELm16ENS_15CrashOnOverflowEE15reserveCapacityEm
__ZN3WTF6VectorIjLm16ENS_20UnsafeVectorOverflowEE15reserveCapacityEm
__ZN3WTF6VectorIN3JSC11WalkerStateELm16ENS_20UnsafeVectorOverflowEE15reserveCapacityEm
__ZN3JSC11HandleStack4growEv
__ZN3WTF10BlockStackIN3JSC7JSValueEE6shrinkEPS2_
__ZN3WTF6RefPtrIN3JSC21PropertyNameArrayDataEEaSEPS2_
__ZN3WTF6VectorIN3JSC11Stringifier6HolderELm16ENS_20UnsafeVectorOverflowEE15reserveCapacityEm
__ZN3JSC8JSObject27enterDictionaryIndexingModeERNS_2VME
__ZN3JSC9ExecState22stringConstructorTableEPS0_
__ZN3JSC9ExecState22numberConstructorTableEPS0_
__ZN3JSC9ExecState22regExpConstructorTableEPS0_
__ZN3JSC9ExecState9mathTableEPS0_
__ZN3JSC9ExecState9jsonTableEPS0_
__ZN3JSC7JSProxy19getOwnPropertyNamesEPNS_8JSObjectEPNS_9ExecStateERNS_17PropertyNameArrayENS_15EnumerationModeE
__ZN3JSC9Arguments24getOwnPropertyDescriptorEPNS_8JSObjectEPNS_9ExecStateENS_12PropertyNameERNS_18PropertyDescriptorE
__ZN3JSC9Arguments17defineOwnPropertyEPNS_8JSObjectEPNS_9ExecStateENS_12PropertyNameERNS_18PropertyDescriptorEb
__ZN3WTF7HashMapIyN3JSC16SparseArrayEntryENS_7IntHashIyEENS_29UnsignedWithZeroKeyHashTraitsIyEENS_10HashTraitsIS2_EEE4findERKy
__ZN3JSCL28arrayProtoFuncToLocaleStringEPNS_9ExecStateE
__ZN3WTF6VectorIjLm0ENS_20UnsafeVectorOverflowEE14expandCapacityEm
__ZN3JSC21throwOutOfMemoryErrorEPNS_9ExecStateE
__ZN3JSC11createErrorEPNS_14JSGlobalObjectERKN3WTF6StringE
__ZN3JSC22StringRecursionChecker11emptyStringEv
__ZN3JSC7JSValue21putToPrimitiveByIndexEPNS_9ExecStateEjS0_b
__ZN3JSC8JSObject46attemptToInterceptPutByIndexOnHoleForPrototypeEPNS_9ExecStateENS_7JSValueEjS3_b
__ZN3JSC6ParserINS_5LexerIhEEE29updateErrorWithNameAndMessageEPKcN3WTF6StringES5_
__ZN3WTF13tryMakeStringIPKcS2_NS_6StringES2_S2_EENS_10PassRefPtrINS_10StringImplEEET_T0_T1_T2_T3_
__ZN3JSC9Arguments33createStrictModeCalleeIfNecessaryEPNS_9ExecStateE
__ZN3JSC18PropertyDescriptor21setAccessorDescriptorEPNS_12GetterSetterEj
__ZN3JSC24globalFuncThrowTypeErrorEPNS_9ExecStateE
__ZN3JSC9Arguments33createStrictModeCallerIfNecessaryEPNS_9ExecStateE
__ZN3JSC37createErrorForInvalidGlobalAssignmentEPNS_9ExecStateERKN3WTF6StringE
__ZN3JSC15DeleteValueNode12emitBytecodeERNS_17BytecodeGeneratorEPNS_10RegisterIDE
__ZN3JSC18imulThunkGeneratorEPNS_2VME
__ZN3JSCL34objectConstructorPreventExtensionsEPNS_9ExecStateE
__ZN3JSC14MacroAssembler4moveENS_22AbstractMacroAssemblerINS_12X86AssemblerEE6ImmPtrENS_12X86Registers10RegisterIDE
_operationArrayPop
_operationArrayPopAndRecoverLength
__ZN3JSC8JSObject34attemptToInterceptPutByIndexOnHoleEPNS_9ExecStateEjNS_7JSValueEb
__ZN3JSC3DFG12slowPathCallINS_22AbstractMacroAssemblerINS_12X86AssemblerEE8JumpListEPFxPNS_9ExecStateEiPNS_15InlineCallFrameEiENS_12X86Registers10RegisterIDEiS9_SD_EEN3WTF10PassOwnPtrINS0_17SlowPathGeneratorEEET_PNS0_14SpeculativeJITET0_T1_T2_T3_T4_NS0_18SpillRegistersModeE
__ZN3JSC3DFG44CallResultAndThreeArgumentsSlowPathGeneratorINS_22AbstractMacroAssemblerINS_12X86AssemblerEE8JumpListEPFxPNS_9ExecStateEiPNS_15InlineCallFrameEiENS_12X86Registers10RegisterIDEiS9_SD_E16generateInternalEPNS0_14SpeculativeJITE
__ZN3JSC3DFG44CallResultAndThreeArgumentsSlowPathGeneratorINS_22AbstractMacroAssemblerINS_12X86AssemblerEE8JumpListEPFxPNS_9ExecStateEiPNS_15InlineCallFrameEiENS_12X86Registers10RegisterIDEiS9_SD_EC2ES5_PNS0_14SpeculativeJITESB_NS0_18SpillRegistersModeESD_iS9_SD_
__ZN3JSC3DFG44CallResultAndThreeArgumentsSlowPathGeneratorINS_22AbstractMacroAssemblerINS_12X86AssemblerEE8JumpListEPFxPNS_9ExecStateEiPNS_15InlineCallFrameEiENS_12X86Registers10RegisterIDEiS9_SD_ED0Ev
__ZN3JSC3DFG44CallResultAndThreeArgumentsSlowPathGeneratorINS_22AbstractMacroAssemblerINS_12X86AssemblerEE8JumpListEPFxPNS_9ExecStateEiPNS_15InlineCallFrameEiENS_12X86Registers10RegisterIDEiS9_SD_ED1Ev
__ZN3JSC3DFG21CallSlowPathGeneratorINS_22AbstractMacroAssemblerINS_12X86AssemblerEE8JumpListEPFxPNS_9ExecStateEiPNS_15InlineCallFrameEiENS_12X86Registers10RegisterIDEEC2ES5_PNS0_14SpeculativeJITESB_NS0_18SpillRegistersModeESD_
__ZN3JSC3DFG21CallSlowPathGeneratorINS_22AbstractMacroAssemblerINS_12X86AssemblerEE8JumpListEPFxPNS_9ExecStateEiPNS_15InlineCallFrameEiENS_12X86Registers10RegisterIDEED0Ev
__ZN3JSC3DFG21CallSlowPathGeneratorINS_22AbstractMacroAssemblerINS_12X86AssemblerEE8JumpListEPFxPNS_9ExecStateEiPNS_15InlineCallFrameEiENS_12X86Registers10RegisterIDEED1Ev
__ZN3JSC3DFG14SpeculativeJIT13callOperationEPFxPNS_9ExecStateEiPNS_15InlineCallFrameEiENS_12X86Registers10RegisterIDEiS5_S9_
_lookupExceptionHandlerInStub
__ZN3JSC3DFG14SpeculativeJIT32compileGetByValOnFloatTypedArrayERKNS_20TypedArrayDescriptorEPNS0_4NodeEm
__ZN3JSC3DFG14SpeculativeJIT33compilePutByValForFloatTypedArrayERKNS_20TypedArrayDescriptorENS_12X86Registers10RegisterIDES6_PNS0_4NodeEm
_operationGetInlinedArgumentByVal
__ZN3JSC13EvalCodeBlock12jettisonImplEv
__ZN3JSC14EvalExecutable21jettisonOptimizedCodeERNS_2VME
_operationToStringOnCell
_operationNewStringObject
__ZN3JSC3DFG14SpeculativeJIT33speculateStringObjectForStructureINS_22AbstractMacroAssemblerINS_12X86AssemblerEE7AddressEEEvNS0_4EdgeET_
__ZN3JSCL25objectConstructorIsFrozenEPNS_9ExecStateE
__ZN3JSC29callHostFunctionAsConstructorEPNS_9ExecStateE
__ZN3JSC15JSBoundFunction17customHasInstanceEPNS_8JSObjectEPNS_9ExecStateENS_7JSValueE
__ZN3JSCL22regExpConstructorInputEPNS_9ExecStateENS_7JSValueENS_12PropertyNameE
__ZN3JSC10MathObject24getOwnPropertyDescriptorEPNS_8JSObjectEPNS_9ExecStateENS_12PropertyNameERNS_18PropertyDescriptorE
__ZN3JSC18RegExpMatchesArray24getOwnPropertyDescriptorEPNS_8JSObjectEPNS_9ExecStateENS_12PropertyNameERNS_18PropertyDescriptorE
__ZN3JSCL17mathProtoFuncIMulEPNS_9ExecStateE
__ZN3JSC3DFG14SpeculativeJIT16compileArithIMulEPNS0_4NodeE
__ZN3WTF17double_conversion6Bignum6SquareEv
__ZNK3JSC5LexerIhE23invalidCharacterMessageEv
__ZN3JSC22NativeErrorConstructor11getCallDataEPNS_6JSCellERNS_8CallDataE
__ZN3JSCL26callNativeErrorConstructorEPNS_9ExecStateE
__ZN3JSC17BytecodeGenerator35emitThrowExpressionTooDeepExceptionEv
__ZN3JSC22createOutOfMemoryErrorEPNS_14JSGlobalObjectE
__ZN3JSCL17mathProtoFuncACosEPNS_9ExecStateE
__ZN3JSC11JSNameScope3putEPNS_6JSCellEPNS_9ExecStateENS_12PropertyNameENS_7JSValueERNS_15PutPropertySlotE
__ZN3JSC14symbolTablePutINS_11JSNameScopeEEEbPT_PNS_9ExecStateENS_12PropertyNameENS_7JSValueEb
__ZN3JSCL20constructPrivateNameEPNS_9ExecStateE
__ZN3JSCL29objectProtoFuncToLocaleStringEPNS_9ExecStateE
__ZN3JSC13JSNotAnObject24getOwnPropertyDescriptorEPNS_8JSObjectEPNS_9ExecStateENS_12PropertyNameERNS_18PropertyDescriptorE
__ZN3JSCL20isNonLatin1IdentPartEi
__ZN3JSC5LexerIhE23parseIdentifierSlowCaseILb0EEENS_11JSTokenTypeEPNS_11JSTokenDataEjb
__ZN3JSCL21objectConstructorSealEPNS_9ExecStateE
__ZN3JSCL25objectConstructorIsSealedEPNS_9ExecStateE
__ZN3JSC9Structure8isSealedERNS_2VME
__ZN3JSCL29objectConstructorIsExtensibleEPNS_9ExecStateE
__ZN3JSC8JSObject4sealERNS_2VME
__ZN3JSC9Structure14sealTransitionERNS_2VMEPS0_
__ZN3JSC9Arguments14deletePropertyEPNS_6JSCellEPNS_9ExecStateENS_12PropertyNameE
__ZN3JSC12StringObject21deletePropertyByIndexEPNS_6JSCellEPNS_9ExecStateEj
__ZN3JSC6JSCell10putByIndexEPS0_PNS_9ExecStateEjNS_7JSValueEb
__ZN3JSC10ASTBuilder28createGetterOrSetterPropertyILb0EEEPNS_12PropertyNodeEPNS_2VMERKNS_15JSTokenLocationENS2_4TypeEdPNS_13ParameterNodeEPNS_16FunctionBodyNodeEjjiij
__ZN3JSC10ASTBuilder28createGetterOrSetterPropertyILb1EEEPNS_12PropertyNodeEPNS_2VMERKNS_15JSTokenLocationENS2_4TypeEdPNS_13ParameterNodeEPNS_16FunctionBodyNodeEjjiij
__ZN3JSC8putEntryINS_17RegExpConstructorEEEvPNS_9ExecStateEPKNS_9HashEntryENS_12PropertyNameENS_7JSValueEPT_b
__ZN3JSCL24regExpConstructorDollar8EPNS_9ExecStateENS_7JSValueENS_12PropertyNameE
__ZN3JSCL24regExpConstructorDollar9EPNS_9ExecStateENS_7JSValueENS_12PropertyNameE
__ZN3JSCL25setRegExpConstructorInputEPNS_9ExecStateEPNS_8JSObjectENS_7JSValueE
__ZN3JSC18RegExpCachedResult8setInputEPNS_9ExecStateEPNS_8JSObjectEPNS_8JSStringE
__ZN3JSCL26regExpConstructorLastParenEPNS_9ExecStateENS_7JSValueENS_12PropertyNameE
__ZN3JSCL26regExpConstructorMultilineEPNS_9ExecStateENS_7JSValueENS_12PropertyNameE
__ZN3JSCL29setRegExpConstructorMultilineEPNS_9ExecStateEPNS_8JSObjectENS_7JSValueE
__ZN3JSC4Yarr11YarrPattern23nondigitsCharacterClassEv
__ZN3JSC4Yarr15nondigitsCreateEv
__ZN3JSC5LLInt24interpreterThrowInCallerEPNS_9ExecStateENS_16ReturnAddressPtrE
__ZNK3JSC15InlineCallFrame17baselineCodeBlockEv
__ZN3JSC8putEntryINS_17NumberConstructorEEEvPNS_9ExecStateEPKNS_9HashEntryENS_12PropertyNameENS_7JSValueEPT_b
__ZN3JSCL21stringProtoFuncAnchorEPNS_9ExecStateE
__ZN3JSC22jsMakeNontrivialStringIPKcN3WTF6StringES2_S4_S2_EENS_7JSValueEPNS_9ExecStateET_T0_T1_T2_T3_
__ZN3WTF13tryMakeStringIPKcNS_6StringES2_S3_S2_EENS_10PassRefPtrINS_10StringImplEEET_T0_T1_T2_T3_
__ZN3JSCL24stringProtoFuncFontcolorEPNS_9ExecStateE
__ZN3JSCL23stringProtoFuncFontsizeEPNS_9ExecStateE
__ZN3JSCL19stringProtoFuncLinkEPNS_9ExecStateE
__ZN3JSCL23stringProtoFuncTrimLeftEPNS_9ExecStateE
__ZN3JSC8putEntryINS_12RegExpObjectEEEvPNS_9ExecStateEPKNS_9HashEntryENS_12PropertyNameENS_7JSValueEPT_b
__ZN3WTF6VectorIN3JSC10LabelScopeELm8ENS_15CrashOnOverflowEEaSERKS4_
__ZN3JSC8JSObject24deallocateSparseIndexMapEv
__ZN3JSC12StringObject10putByIndexEPNS_6JSCellEPNS_9ExecStateEjNS_7JSValueEb
__ZN3JSC8JSObject22createInitialUndecidedERNS_2VMEj
__ZN3JSCL19compareKeysForQSortEPKvS1_
__ZN3JSC3DFG10FixupPhase23truncateConstantToInt32ERNS0_4EdgeE
__ZN3JSC3DFG10FixupPhase19convertStringAddUseILNS0_7UseKindE13EEEvPNS0_4NodeERNS0_4EdgeE
__ZN3WTF6VectorIPN3JSC8JSStringELm32ENS_20UnsafeVectorOverflowEE15reserveCapacityEm
__ZN3JSC14LegacyProfiler8profilerEv
__ZN3JSC14LegacyProfiler14startProfilingEPNS_9ExecStateERKN3WTF6StringE
__ZN3JSC16ProfileGenerator6createEPNS_9ExecStateERKN3WTF6StringEj
__ZN3JSC16ProfileGeneratorC2EPNS_9ExecStateERKN3WTF6StringEj
__ZN3JSC7Profile6createERKN3WTF6StringEj
__ZN3JSC7ProfileC2ERKN3WTF6StringEj
__ZN3JSC11ProfileNodeC1EPNS_9ExecStateERKNS_14CallIdentifierEPS0_S6_
__ZN3JSC16ProfileGenerator24addParentForConsoleStartEPNS_9ExecStateE
__ZN3JSC14LegacyProfiler20createCallIdentifierEPNS_9ExecStateENS_7JSValueERKN3WTF6StringEi
__ZN3JSC11ProfileNode10insertNodeEN3WTF10PassRefPtrIS0_EE
__ZN3WTF6VectorINS_6RefPtrIN3JSC11ProfileNodeEEELm0ENS_15CrashOnOverflowEE14shrinkCapacityEm
__ZN3WTF6VectorINS_6RefPtrIN3JSC11ProfileNodeEEELm0ENS_15CrashOnOverflowEE14expandCapacityEm
__ZN3WTF6VectorINS_6RefPtrIN3JSC16ProfileGeneratorEEELm0ENS_15CrashOnOverflowEE14expandCapacityEm
__ZN3JSC14LegacyProfiler10didExecuteEPNS_9ExecStateENS_7JSValueE
__ZN3JSC16ProfileGenerator10didExecuteEPNS_9ExecStateERKNS_14CallIdentifierE
__ZN3JSC11ProfileNode10didExecuteEv
__ZN3JSC14LegacyProfiler11willExecuteEPNS_9ExecStateENS_7JSValueE
__ZN3JSC16ProfileGenerator11willExecuteEPNS_9ExecStateERKNS_14CallIdentifierE
__ZN3JSC11ProfileNode11willExecuteEPNS_9ExecStateERKNS_14CallIdentifierE
__ZN3JSC14LegacyProfiler13stopProfilingEPNS_9ExecStateERKN3WTF6StringE
__ZN3JSC16ProfileGenerator13stopProfilingEv
__ZN3JSC7Profile7forEachEMNS_11ProfileNodeEFvvE
__ZNK3JSC11ProfileNode25traverseNextNodePostOrderEv
__ZN3JSC11ProfileNode13stopProfilingEv
__ZN3JSC11ProfileNode11removeChildEPS0_
__ZN3JSC11ProfileNodeD1Ev
__ZN3JSC11ProfileNode8addChildEN3WTF10PassRefPtrIS0_EE
__ZN3WTF6VectorINS_6RefPtrIN3JSC16ProfileGeneratorEEELm0ENS_15CrashOnOverflowEE6removeEm
__ZN3JSC14LegacyProfiler11willExecuteEPNS_9ExecStateERKN3WTF6StringEi
__ZN3JSC14LegacyProfiler10didExecuteEPNS_9ExecStateERKN3WTF6StringEi
__ZN3JSC7ProfileD0Ev
__ZNK3JSC16ProfileGenerator5titleEv
__ZN3JSC14LegacyProfiler13stopProfilingEPNS_14JSGlobalObjectE
__ZN3JSC4Yarr11InterpreterItE22parenthesesDoBacktrackERNS0_8ByteTermEPNS2_24BackTrackInfoParenthesesE
__ZN3WTF8CollatorC1EPKc
__ZN3WTF8Collator18setOrderLowerFirstEb
__ZN3JSC10JSONObject24getOwnPropertyDescriptorEPNS_8JSObjectEPNS_9ExecStateENS_12PropertyNameERNS_18PropertyDescriptorE
__ZNK3WTF6String11toIntStrictEPbi
__ZN3WTF10StringImpl11toIntStrictEPbi
_JSStringGetLength
__ZN3JSC5LexerItE23parseIdentifierSlowCaseILb1EEENS_11JSTokenTypeEPNS_11JSTokenDataEjb
__ZN3WTF6VectorIN3JSC10LabelScopeELm8ENS_15CrashOnOverflowEE15reserveCapacityEm
__ZN3JSC16JSCallbackObjectINS_20JSDestructibleObjectEE11getCallDataEPNS_6JSCellERNS_8CallDataE
_operationPutDoubleByValBeyondArrayBoundsNonStrict
_JSStringGetMaximumUTF8CStringSize
__ZN3JSC15constructStringEPNS_9ExecStateEPNS_14JSGlobalObjectENS_7JSValueE
__ZN3WTF17charactersToFloatEPKtmRm
__ZN3JSC7JSArray10sortVectorILh23EEEvPNS_9ExecStateENS_7JSValueENS_8CallTypeERKNS_8CallDataE
__ZN3JSC24TerminatedExecutionError12defaultValueEPKNS_8JSObjectEPNS_9ExecStateENS_22PreferredPrimitiveTypeE
__ZN3WTF5yieldEv
__ZNK3JSC17DebuggerCallFrame4typeEv
__ZNK3JSC17DebuggerCallFrame22calculatedFunctionNameEv
__ZNK3JSC17DebuggerCallFrame10thisObjectEv
__ZN3JSC2VM18createContextGroupENS_8HeapTypeE
__ZN3JSC21deleteIdentifierTableEPNS_15IdentifierTableE
__ZN3JSC15IdentifierTableD1Ev
_WTFReportAssertionFailure
_llint_entry_osr
_llint_entry_osr_function_for_call
_llint_entry_osr_function_for_construct
_llint_entry_osr_function_for_call_arityCheck
_llint_entry_osr_function_for_construct_arityCheck
_llint_loop_osr
_llint_replace
_llint_stack_check
_llint_slow_path_call_arityCheck
_llint_slow_path_construct_arityCheck
_llint_slow_path_create_activation
_llint_slow_path_create_arguments
_llint_slow_path_create_this
_llint_slow_path_convert_this
_llint_slow_path_new_object
_llint_slow_path_new_array
_llint_slow_path_new_array_with_size
_llint_slow_path_new_array_buffer
_llint_slow_path_new_regexp
_llint_slow_path_not
_llint_slow_path_eq
_llint_slow_path_neq
_llint_slow_path_stricteq
_llint_slow_path_nstricteq
_llint_slow_path_less
_llint_slow_path_lesseq
_llint_slow_path_greater
_llint_slow_path_greatereq
_llint_slow_path_pre_inc
_llint_slow_path_pre_dec
_llint_slow_path_to_number
_llint_slow_path_negate
_llint_slow_path_add
_llint_slow_path_mul
_llint_slow_path_sub
_llint_slow_path_div
_llint_slow_path_mod
_llint_slow_path_lshift
_llint_slow_path_rshift
_llint_slow_path_urshift
_llint_slow_path_bitand
_llint_slow_path_bitor
_llint_slow_path_bitxor
_llint_slow_path_check_has_instance
_llint_slow_path_instanceof
_llint_slow_path_typeof
_llint_slow_path_is_object_or_null
_llint_slow_path_is_function
_llint_slow_path_in
_llint_slow_path_resolve
_llint_slow_path_put_to_base
_llint_slow_path_resolve_base
_llint_slow_path_resolve_with_base
_llint_slow_path_resolve_with_this
_llint_slow_path_init_global_const_check
_llint_slow_path_get_by_id
_llint_slow_path_get_arguments_length
_llint_slow_path_put_by_id
_llint_slow_path_del_by_id
_llint_slow_path_get_by_val
_llint_slow_path_get_argument_by_val
_llint_slow_path_put_by_val
_llint_slow_path_del_by_val
_llint_slow_path_put_by_index
_llint_slow_path_put_getter_setter
_llint_slow_path_jtrue
_llint_slow_path_jfalse
_llint_slow_path_jless
_llint_slow_path_jnless
_llint_slow_path_jgreater
_llint_slow_path_jngreater
_llint_slow_path_jlesseq
_llint_slow_path_jnlesseq
_llint_slow_path_jgreatereq
_llint_slow_path_jngreatereq
_llint_slow_path_switch_imm
_llint_slow_path_switch_char
_llint_slow_path_switch_string
_llint_slow_path_new_func
_llint_slow_path_new_func_exp
_llint_slow_path_call
_llint_slow_path_construct
_llint_slow_path_call_varargs
_llint_slow_path_call_eval
_llint_slow_path_tear_off_activation
_llint_slow_path_tear_off_arguments
_llint_slow_path_strcat
_llint_slow_path_to_primitive
_llint_slow_path_push_with_scope
_llint_slow_path_pop_scope
_llint_slow_path_push_name_scope
_llint_slow_path_throw
_llint_slow_path_throw_static_error
_llint_slow_path_handle_watchdog_timer
_llint_slow_path_debug
_llint_slow_path_profile_will_call
_llint_slow_path_profile_did_call
_llint_begin
_llint_program_prologue
_llint_eval_prologue
_llint_function_for_call_prologue
_llint_function_for_construct_prologue
_llint_function_for_call_arity_check
_llint_function_for_construct_arity_check
_llint_op_enter
_llint_op_create_activation
_llint_op_init_lazy_reg
_llint_op_create_arguments
_llint_op_create_this
_llint_op_get_callee
_llint_op_convert_this
_llint_op_new_object
_llint_op_mov
_llint_op_not
_llint_op_eq
_llint_op_eq_null
_llint_op_neq
_llint_op_neq_null
_llint_op_stricteq
_llint_op_nstricteq
_llint_op_inc
_llint_op_dec
_llint_op_to_number
_llint_op_negate
_llint_op_add
_llint_op_mul
_llint_op_sub
_llint_op_div
_llint_op_lshift
_llint_op_rshift
_llint_op_urshift
_llint_op_bitand
_llint_op_bitxor
_llint_op_bitor
_llint_op_check_has_instance
_llint_op_instanceof
_llint_op_is_undefined
_llint_op_is_boolean
_llint_op_is_number
_llint_op_is_string
_llint_op_init_global_const
_llint_op_init_global_const_check
_llint_op_get_by_id
_llint_op_get_by_id_out_of_line
_llint_op_get_array_length
_llint_op_get_arguments_length
_llint_op_put_by_id
_llint_op_put_by_id_out_of_line
_llint_op_put_by_id_transition_direct
_llint_op_put_by_id_transition_direct_out_of_line
_llint_op_put_by_id_transition_normal
_llint_op_put_by_id_transition_normal_out_of_line
_llint_op_get_by_val
_llint_op_get_argument_by_val
_llint_op_put_by_val
_llint_op_jmp
_llint_op_jeq_null
_llint_op_jneq_null
_llint_op_jneq_ptr
_llint_op_switch_imm
_llint_op_switch_char
_llint_op_new_func
_llint_op_tear_off_activation
_llint_op_tear_off_arguments
_llint_op_ret
_llint_op_call_put_result
_llint_op_ret_object_or_this
_llint_op_to_primitive
_llint_op_catch
_llint_op_get_scoped_var
_llint_op_put_scoped_var
_llint_op_end
_llint_throw_from_slow_path_trampoline
_llint_throw_during_call_trampoline
_llint_op_new_array
_llint_op_new_array_with_size
_llint_op_new_array_buffer
_llint_op_new_regexp
_llint_op_less
_llint_op_lesseq
_llint_op_greater
_llint_op_greatereq
_llint_op_mod
_llint_op_typeof
_llint_op_is_object_or_null
_llint_op_is_function
_llint_op_in
_llint_op_put_to_base_variable
_llint_op_put_to_base
_llint_op_resolve_global_property
_llint_op_resolve_global_var
_llint_op_resolve_scoped_var
_llint_op_resolve_scoped_var_on_top_scope
_llint_op_resolve_scoped_var_with_top_scope_check
_llint_op_resolve
_llint_op_resolve_base_to_global
_llint_op_resolve_base_to_global_dynamic
_llint_op_resolve_base_to_scope
_llint_op_resolve_base_to_scope_with_top_scope_check
_llint_op_resolve_base
_llint_op_resolve_with_base
_llint_op_resolve_with_this
_llint_op_del_by_id
_llint_op_del_by_val
_llint_op_put_by_index
_llint_op_put_getter_setter
_llint_op_jtrue
_llint_op_jfalse
_llint_op_jless
_llint_op_jnless
_llint_op_jgreater
_llint_op_jngreater
_llint_op_jlesseq
_llint_op_jnlesseq
_llint_op_jgreatereq
_llint_op_jngreatereq
_llint_op_loop_hint
_llint_op_switch_string
_llint_op_new_func_exp
_llint_op_call
_llint_op_construct
_llint_op_call_varargs
_llint_op_call_eval
_llint_generic_return_point
_llint_op_strcat
_llint_op_push_with_scope
_llint_op_pop_scope
_llint_op_push_name_scope
_llint_op_throw
_llint_op_throw_static_error
_llint_op_profile_will_call
_llint_op_profile_did_call
_llint_op_debug
_llint_native_call_trampoline
_llint_native_construct_trampoline
_llint_op_get_by_id_chain
_llint_op_get_by_id_custom_chain
_llint_op_get_by_id_custom_proto
_llint_op_get_by_id_custom_self
_llint_op_get_by_id_generic
_llint_op_get_by_id_getter_chain
_llint_op_get_by_id_getter_proto
_llint_op_get_by_id_getter_self
_llint_op_get_by_id_proto
_llint_op_get_by_id_self
_llint_op_get_string_length
_llint_op_put_by_id_generi
_llint_op_put_by_id_replace
_llint_op_put_by_id_transition
_llint_op_init_global_const_nop
_llint_end
